ARM GAS  C:\Users\NUSAIR~1\AppData\Local\Temp\cc57YB6U.s 			page 1


   1              		.syntax unified
   2              		.cpu cortex-m4
   3              		.eabi_attribute 27, 1
   4              		.fpu fpv4-sp-d16
   5              		.eabi_attribute 20, 1
   6              		.eabi_attribute 21, 1
   7              		.eabi_attribute 23, 3
   8              		.eabi_attribute 24, 1
   9              		.eabi_attribute 25, 1
  10              		.eabi_attribute 26, 1
  11              		.eabi_attribute 30, 1
  12              		.eabi_attribute 34, 1
  13              		.eabi_attribute 18, 4
  14              		.thumb
  15              		.syntax unified
  16              		.file	"main_cm4.c"
  17              		.text
  18              	.Ltext0:
  19              		.cfi_sections	.debug_frame
  20              		.section	.text.main,"ax",%progbits
  21              		.align	2
  22              		.global	main
  23              		.thumb
  24              		.thumb_func
  25              		.type	main, %function
  26              	main:
  27              	.LFB555:
  28              		.file 1 "main_cm4.c"
   1:main_cm4.c    **** /* ========================================
   2:main_cm4.c    ****  *
   3:main_cm4.c    ****  * Copyright YOUR COMPANY, THE YEAR
   4:main_cm4.c    ****  * All Rights Reserved
   5:main_cm4.c    ****  * UNPUBLISHED, LICENSED SOFTWARE.
   6:main_cm4.c    ****  *
   7:main_cm4.c    ****  * CONFIDENTIAL AND PROPRIETARY INFORMATION
   8:main_cm4.c    ****  * WHICH IS THE PROPERTY OF your company.
   9:main_cm4.c    ****  *
  10:main_cm4.c    ****  * ========================================
  11:main_cm4.c    **** */
  12:main_cm4.c    **** #include "project.h"
  13:main_cm4.c    **** #include "stdio.h"
  14:main_cm4.c    **** #include "math.h"
  15:main_cm4.c    **** 
  16:main_cm4.c    **** #include "uartio.h"
  17:main_cm4.c    **** #include "IMU.h"
  18:main_cm4.c    **** #include "PPG.h"
  19:main_cm4.c    **** 
  20:main_cm4.c    **** 
  21:main_cm4.c    **** int main(void)
  22:main_cm4.c    **** {
  29              		.loc 1 22 0
  30              		.cfi_startproc
  31              		@ args = 0, pretend = 0, frame = 104
  32              		@ frame_needed = 0, uses_anonymous_args = 0
  33 0000 10B5     		push	{r4, lr}
  34              		.cfi_def_cfa_offset 8
  35              		.cfi_offset 4, -8
ARM GAS  C:\Users\NUSAIR~1\AppData\Local\Temp\cc57YB6U.s 			page 2


  36              		.cfi_offset 14, -4
  37 0002 9AB0     		sub	sp, sp, #104
  38              		.cfi_def_cfa_offset 112
  39              	.LBB4:
  40              	.LBB5:
  41              		.file 2 "Generated_Source\\PSoC6\\pdl\\cmsis/include/cmsis_gcc.h"
   1:Generated_Source\PSoC6\pdl\cmsis/include/cmsis_gcc.h **** /**************************************************************************//**
   2:Generated_Source\PSoC6\pdl\cmsis/include/cmsis_gcc.h ****  * @file     cmsis_gcc.h
   3:Generated_Source\PSoC6\pdl\cmsis/include/cmsis_gcc.h ****  * @brief    CMSIS compiler GCC header file
   4:Generated_Source\PSoC6\pdl\cmsis/include/cmsis_gcc.h ****  * @version  V5.0.3
   5:Generated_Source\PSoC6\pdl\cmsis/include/cmsis_gcc.h ****  * @date     16. January 2018
   6:Generated_Source\PSoC6\pdl\cmsis/include/cmsis_gcc.h ****  ******************************************************************************/
   7:Generated_Source\PSoC6\pdl\cmsis/include/cmsis_gcc.h **** /*
   8:Generated_Source\PSoC6\pdl\cmsis/include/cmsis_gcc.h ****  * Copyright (c) 2009-2017 ARM Limited. All rights reserved.
   9:Generated_Source\PSoC6\pdl\cmsis/include/cmsis_gcc.h ****  *
  10:Generated_Source\PSoC6\pdl\cmsis/include/cmsis_gcc.h ****  * SPDX-License-Identifier: Apache-2.0
  11:Generated_Source\PSoC6\pdl\cmsis/include/cmsis_gcc.h ****  *
  12:Generated_Source\PSoC6\pdl\cmsis/include/cmsis_gcc.h ****  * Licensed under the Apache License, Version 2.0 (the License); you may
  13:Generated_Source\PSoC6\pdl\cmsis/include/cmsis_gcc.h ****  * not use this file except in compliance with the License.
  14:Generated_Source\PSoC6\pdl\cmsis/include/cmsis_gcc.h ****  * You may obtain a copy of the License at
  15:Generated_Source\PSoC6\pdl\cmsis/include/cmsis_gcc.h ****  *
  16:Generated_Source\PSoC6\pdl\cmsis/include/cmsis_gcc.h ****  * www.apache.org/licenses/LICENSE-2.0
  17:Generated_Source\PSoC6\pdl\cmsis/include/cmsis_gcc.h ****  *
  18:Generated_Source\PSoC6\pdl\cmsis/include/cmsis_gcc.h ****  * Unless required by applicable law or agreed to in writing, software
  19:Generated_Source\PSoC6\pdl\cmsis/include/cmsis_gcc.h ****  * distributed under the License is distributed on an AS IS BASIS, WITHOUT
  20:Generated_Source\PSoC6\pdl\cmsis/include/cmsis_gcc.h ****  * WARRANTIES OR CONDITIONS OF ANY KIND, either express or implied.
  21:Generated_Source\PSoC6\pdl\cmsis/include/cmsis_gcc.h ****  * See the License for the specific language governing permissions and
  22:Generated_Source\PSoC6\pdl\cmsis/include/cmsis_gcc.h ****  * limitations under the License.
  23:Generated_Source\PSoC6\pdl\cmsis/include/cmsis_gcc.h ****  */
  24:Generated_Source\PSoC6\pdl\cmsis/include/cmsis_gcc.h **** 
  25:Generated_Source\PSoC6\pdl\cmsis/include/cmsis_gcc.h **** #ifndef __CMSIS_GCC_H
  26:Generated_Source\PSoC6\pdl\cmsis/include/cmsis_gcc.h **** #define __CMSIS_GCC_H
  27:Generated_Source\PSoC6\pdl\cmsis/include/cmsis_gcc.h **** 
  28:Generated_Source\PSoC6\pdl\cmsis/include/cmsis_gcc.h **** /* ignore some GCC warnings */
  29:Generated_Source\PSoC6\pdl\cmsis/include/cmsis_gcc.h **** #pragma GCC diagnostic push
  30:Generated_Source\PSoC6\pdl\cmsis/include/cmsis_gcc.h **** #pragma GCC diagnostic ignored "-Wsign-conversion"
  31:Generated_Source\PSoC6\pdl\cmsis/include/cmsis_gcc.h **** #pragma GCC diagnostic ignored "-Wconversion"
  32:Generated_Source\PSoC6\pdl\cmsis/include/cmsis_gcc.h **** #pragma GCC diagnostic ignored "-Wunused-parameter"
  33:Generated_Source\PSoC6\pdl\cmsis/include/cmsis_gcc.h **** 
  34:Generated_Source\PSoC6\pdl\cmsis/include/cmsis_gcc.h **** /* Fallback for __has_builtin */
  35:Generated_Source\PSoC6\pdl\cmsis/include/cmsis_gcc.h **** #ifndef __has_builtin
  36:Generated_Source\PSoC6\pdl\cmsis/include/cmsis_gcc.h ****   #define __has_builtin(x) (0)
  37:Generated_Source\PSoC6\pdl\cmsis/include/cmsis_gcc.h **** #endif
  38:Generated_Source\PSoC6\pdl\cmsis/include/cmsis_gcc.h **** 
  39:Generated_Source\PSoC6\pdl\cmsis/include/cmsis_gcc.h **** /* CMSIS compiler specific defines */
  40:Generated_Source\PSoC6\pdl\cmsis/include/cmsis_gcc.h **** #ifndef   __ASM
  41:Generated_Source\PSoC6\pdl\cmsis/include/cmsis_gcc.h ****   #define __ASM                                  __asm
  42:Generated_Source\PSoC6\pdl\cmsis/include/cmsis_gcc.h **** #endif
  43:Generated_Source\PSoC6\pdl\cmsis/include/cmsis_gcc.h **** #ifndef   __INLINE
  44:Generated_Source\PSoC6\pdl\cmsis/include/cmsis_gcc.h ****   #define __INLINE                               inline
  45:Generated_Source\PSoC6\pdl\cmsis/include/cmsis_gcc.h **** #endif
  46:Generated_Source\PSoC6\pdl\cmsis/include/cmsis_gcc.h **** #ifndef   __STATIC_INLINE
  47:Generated_Source\PSoC6\pdl\cmsis/include/cmsis_gcc.h ****   #define __STATIC_INLINE                        static inline
  48:Generated_Source\PSoC6\pdl\cmsis/include/cmsis_gcc.h **** #endif
  49:Generated_Source\PSoC6\pdl\cmsis/include/cmsis_gcc.h **** #ifndef   __STATIC_FORCEINLINE                 
  50:Generated_Source\PSoC6\pdl\cmsis/include/cmsis_gcc.h ****   #define __STATIC_FORCEINLINE                   __attribute__((always_inline)) static inline
  51:Generated_Source\PSoC6\pdl\cmsis/include/cmsis_gcc.h **** #endif                                           
ARM GAS  C:\Users\NUSAIR~1\AppData\Local\Temp\cc57YB6U.s 			page 3


  52:Generated_Source\PSoC6\pdl\cmsis/include/cmsis_gcc.h **** #ifndef   __NO_RETURN
  53:Generated_Source\PSoC6\pdl\cmsis/include/cmsis_gcc.h ****   #define __NO_RETURN                            __attribute__((__noreturn__))
  54:Generated_Source\PSoC6\pdl\cmsis/include/cmsis_gcc.h **** #endif
  55:Generated_Source\PSoC6\pdl\cmsis/include/cmsis_gcc.h **** #ifndef   __USED
  56:Generated_Source\PSoC6\pdl\cmsis/include/cmsis_gcc.h ****   #define __USED                                 __attribute__((used))
  57:Generated_Source\PSoC6\pdl\cmsis/include/cmsis_gcc.h **** #endif
  58:Generated_Source\PSoC6\pdl\cmsis/include/cmsis_gcc.h **** #ifndef   __WEAK
  59:Generated_Source\PSoC6\pdl\cmsis/include/cmsis_gcc.h ****   #define __WEAK                                 __attribute__((weak))
  60:Generated_Source\PSoC6\pdl\cmsis/include/cmsis_gcc.h **** #endif
  61:Generated_Source\PSoC6\pdl\cmsis/include/cmsis_gcc.h **** #ifndef   __PACKED
  62:Generated_Source\PSoC6\pdl\cmsis/include/cmsis_gcc.h ****   #define __PACKED                               __attribute__((packed, aligned(1)))
  63:Generated_Source\PSoC6\pdl\cmsis/include/cmsis_gcc.h **** #endif
  64:Generated_Source\PSoC6\pdl\cmsis/include/cmsis_gcc.h **** #ifndef   __PACKED_STRUCT
  65:Generated_Source\PSoC6\pdl\cmsis/include/cmsis_gcc.h ****   #define __PACKED_STRUCT                        struct __attribute__((packed, aligned(1)))
  66:Generated_Source\PSoC6\pdl\cmsis/include/cmsis_gcc.h **** #endif
  67:Generated_Source\PSoC6\pdl\cmsis/include/cmsis_gcc.h **** #ifndef   __PACKED_UNION
  68:Generated_Source\PSoC6\pdl\cmsis/include/cmsis_gcc.h ****   #define __PACKED_UNION                         union __attribute__((packed, aligned(1)))
  69:Generated_Source\PSoC6\pdl\cmsis/include/cmsis_gcc.h **** #endif
  70:Generated_Source\PSoC6\pdl\cmsis/include/cmsis_gcc.h **** #ifndef   __UNALIGNED_UINT32        /* deprecated */
  71:Generated_Source\PSoC6\pdl\cmsis/include/cmsis_gcc.h ****   #pragma GCC diagnostic push
  72:Generated_Source\PSoC6\pdl\cmsis/include/cmsis_gcc.h ****   #pragma GCC diagnostic ignored "-Wpacked"
  73:Generated_Source\PSoC6\pdl\cmsis/include/cmsis_gcc.h ****   #pragma GCC diagnostic ignored "-Wattributes"
  74:Generated_Source\PSoC6\pdl\cmsis/include/cmsis_gcc.h ****   struct __attribute__((packed)) T_UINT32 { uint32_t v; };
  75:Generated_Source\PSoC6\pdl\cmsis/include/cmsis_gcc.h ****   #pragma GCC diagnostic pop
  76:Generated_Source\PSoC6\pdl\cmsis/include/cmsis_gcc.h ****   #define __UNALIGNED_UINT32(x)                  (((struct T_UINT32 *)(x))->v)
  77:Generated_Source\PSoC6\pdl\cmsis/include/cmsis_gcc.h **** #endif
  78:Generated_Source\PSoC6\pdl\cmsis/include/cmsis_gcc.h **** #ifndef   __UNALIGNED_UINT16_WRITE
  79:Generated_Source\PSoC6\pdl\cmsis/include/cmsis_gcc.h ****   #pragma GCC diagnostic push
  80:Generated_Source\PSoC6\pdl\cmsis/include/cmsis_gcc.h ****   #pragma GCC diagnostic ignored "-Wpacked"
  81:Generated_Source\PSoC6\pdl\cmsis/include/cmsis_gcc.h ****   #pragma GCC diagnostic ignored "-Wattributes"
  82:Generated_Source\PSoC6\pdl\cmsis/include/cmsis_gcc.h ****   __PACKED_STRUCT T_UINT16_WRITE { uint16_t v; };
  83:Generated_Source\PSoC6\pdl\cmsis/include/cmsis_gcc.h ****   #pragma GCC diagnostic pop
  84:Generated_Source\PSoC6\pdl\cmsis/include/cmsis_gcc.h ****   #define __UNALIGNED_UINT16_WRITE(addr, val)    (void)((((struct T_UINT16_WRITE *)(void *)(addr))-
  85:Generated_Source\PSoC6\pdl\cmsis/include/cmsis_gcc.h **** #endif
  86:Generated_Source\PSoC6\pdl\cmsis/include/cmsis_gcc.h **** #ifndef   __UNALIGNED_UINT16_READ
  87:Generated_Source\PSoC6\pdl\cmsis/include/cmsis_gcc.h ****   #pragma GCC diagnostic push
  88:Generated_Source\PSoC6\pdl\cmsis/include/cmsis_gcc.h ****   #pragma GCC diagnostic ignored "-Wpacked"
  89:Generated_Source\PSoC6\pdl\cmsis/include/cmsis_gcc.h ****   #pragma GCC diagnostic ignored "-Wattributes"
  90:Generated_Source\PSoC6\pdl\cmsis/include/cmsis_gcc.h ****   __PACKED_STRUCT T_UINT16_READ { uint16_t v; };
  91:Generated_Source\PSoC6\pdl\cmsis/include/cmsis_gcc.h ****   #pragma GCC diagnostic pop
  92:Generated_Source\PSoC6\pdl\cmsis/include/cmsis_gcc.h ****   #define __UNALIGNED_UINT16_READ(addr)          (((const struct T_UINT16_READ *)(const void *)(add
  93:Generated_Source\PSoC6\pdl\cmsis/include/cmsis_gcc.h **** #endif
  94:Generated_Source\PSoC6\pdl\cmsis/include/cmsis_gcc.h **** #ifndef   __UNALIGNED_UINT32_WRITE
  95:Generated_Source\PSoC6\pdl\cmsis/include/cmsis_gcc.h ****   #pragma GCC diagnostic push
  96:Generated_Source\PSoC6\pdl\cmsis/include/cmsis_gcc.h ****   #pragma GCC diagnostic ignored "-Wpacked"
  97:Generated_Source\PSoC6\pdl\cmsis/include/cmsis_gcc.h ****   #pragma GCC diagnostic ignored "-Wattributes"
  98:Generated_Source\PSoC6\pdl\cmsis/include/cmsis_gcc.h ****   __PACKED_STRUCT T_UINT32_WRITE { uint32_t v; };
  99:Generated_Source\PSoC6\pdl\cmsis/include/cmsis_gcc.h ****   #pragma GCC diagnostic pop
 100:Generated_Source\PSoC6\pdl\cmsis/include/cmsis_gcc.h ****   #define __UNALIGNED_UINT32_WRITE(addr, val)    (void)((((struct T_UINT32_WRITE *)(void *)(addr))-
 101:Generated_Source\PSoC6\pdl\cmsis/include/cmsis_gcc.h **** #endif
 102:Generated_Source\PSoC6\pdl\cmsis/include/cmsis_gcc.h **** #ifndef   __UNALIGNED_UINT32_READ
 103:Generated_Source\PSoC6\pdl\cmsis/include/cmsis_gcc.h ****   #pragma GCC diagnostic push
 104:Generated_Source\PSoC6\pdl\cmsis/include/cmsis_gcc.h ****   #pragma GCC diagnostic ignored "-Wpacked"
 105:Generated_Source\PSoC6\pdl\cmsis/include/cmsis_gcc.h ****   #pragma GCC diagnostic ignored "-Wattributes"
 106:Generated_Source\PSoC6\pdl\cmsis/include/cmsis_gcc.h ****   __PACKED_STRUCT T_UINT32_READ { uint32_t v; };
 107:Generated_Source\PSoC6\pdl\cmsis/include/cmsis_gcc.h ****   #pragma GCC diagnostic pop
 108:Generated_Source\PSoC6\pdl\cmsis/include/cmsis_gcc.h ****   #define __UNALIGNED_UINT32_READ(addr)          (((const struct T_UINT32_READ *)(const void *)(add
ARM GAS  C:\Users\NUSAIR~1\AppData\Local\Temp\cc57YB6U.s 			page 4


 109:Generated_Source\PSoC6\pdl\cmsis/include/cmsis_gcc.h **** #endif
 110:Generated_Source\PSoC6\pdl\cmsis/include/cmsis_gcc.h **** #ifndef   __ALIGNED
 111:Generated_Source\PSoC6\pdl\cmsis/include/cmsis_gcc.h ****   #define __ALIGNED(x)                           __attribute__((aligned(x)))
 112:Generated_Source\PSoC6\pdl\cmsis/include/cmsis_gcc.h **** #endif
 113:Generated_Source\PSoC6\pdl\cmsis/include/cmsis_gcc.h **** #ifndef   __RESTRICT
 114:Generated_Source\PSoC6\pdl\cmsis/include/cmsis_gcc.h ****   #define __RESTRICT                             __restrict
 115:Generated_Source\PSoC6\pdl\cmsis/include/cmsis_gcc.h **** #endif
 116:Generated_Source\PSoC6\pdl\cmsis/include/cmsis_gcc.h **** 
 117:Generated_Source\PSoC6\pdl\cmsis/include/cmsis_gcc.h **** 
 118:Generated_Source\PSoC6\pdl\cmsis/include/cmsis_gcc.h **** /* ###########################  Core Function Access  ########################### */
 119:Generated_Source\PSoC6\pdl\cmsis/include/cmsis_gcc.h **** /** \ingroup  CMSIS_Core_FunctionInterface
 120:Generated_Source\PSoC6\pdl\cmsis/include/cmsis_gcc.h ****     \defgroup CMSIS_Core_RegAccFunctions CMSIS Core Register Access Functions
 121:Generated_Source\PSoC6\pdl\cmsis/include/cmsis_gcc.h ****   @{
 122:Generated_Source\PSoC6\pdl\cmsis/include/cmsis_gcc.h ****  */
 123:Generated_Source\PSoC6\pdl\cmsis/include/cmsis_gcc.h **** 
 124:Generated_Source\PSoC6\pdl\cmsis/include/cmsis_gcc.h **** /**
 125:Generated_Source\PSoC6\pdl\cmsis/include/cmsis_gcc.h ****   \brief   Enable IRQ Interrupts
 126:Generated_Source\PSoC6\pdl\cmsis/include/cmsis_gcc.h ****   \details Enables IRQ interrupts by clearing the I-bit in the CPSR.
 127:Generated_Source\PSoC6\pdl\cmsis/include/cmsis_gcc.h ****            Can only be executed in Privileged modes.
 128:Generated_Source\PSoC6\pdl\cmsis/include/cmsis_gcc.h ****  */
 129:Generated_Source\PSoC6\pdl\cmsis/include/cmsis_gcc.h **** __STATIC_FORCEINLINE void __enable_irq(void)
 130:Generated_Source\PSoC6\pdl\cmsis/include/cmsis_gcc.h **** {
 131:Generated_Source\PSoC6\pdl\cmsis/include/cmsis_gcc.h ****   __ASM volatile ("cpsie i" : : : "memory");
  42              		.loc 2 131 0
  43              		.syntax unified
  44              	@ 131 "Generated_Source\PSoC6\pdl\cmsis/include/cmsis_gcc.h" 1
  45 0004 62B6     		cpsie i
  46              	@ 0 "" 2
  47              		.thumb
  48              		.syntax unified
  49              	.LBE5:
  50              	.LBE4:
  23:main_cm4.c    ****     __enable_irq(); /* Enable global interrupts. */
  24:main_cm4.c    ****     UartInit();
  51              		.loc 1 24 0
  52 0006 FFF7FEFF 		bl	UartInit
  53              	.LVL0:
  25:main_cm4.c    ****     print("Hello World, Master\n\r");
  54              		.loc 1 25 0
  55 000a 2848     		ldr	r0, .L6
  56 000c FFF7FEFF 		bl	print
  57              	.LVL1:
  26:main_cm4.c    ****     char str[100];
  27:main_cm4.c    ****     
  28:main_cm4.c    ****     if(!init_ICM20649()){
  58              		.loc 1 28 0
  59 0010 FFF7FEFF 		bl	init_ICM20649
  60              	.LVL2:
  61 0014 18B9     		cbnz	r0, .L2
  29:main_cm4.c    ****         print("Failed to start IMU\n\r");
  62              		.loc 1 29 0
  63 0016 2648     		ldr	r0, .L6+4
  64 0018 FFF7FEFF 		bl	print
  65              	.LVL3:
  30:main_cm4.c    ****         return 0;
  66              		.loc 1 30 0
  67 001c 43E0     		b	.L3
ARM GAS  C:\Users\NUSAIR~1\AppData\Local\Temp\cc57YB6U.s 			page 5


  68              	.L2:
  31:main_cm4.c    ****     }
  32:main_cm4.c    ****     if(!setupPPG()){
  69              		.loc 1 32 0
  70 001e FFF7FEFF 		bl	setupPPG
  71              	.LVL4:
  72 0022 18B9     		cbnz	r0, .L4
  33:main_cm4.c    ****         print("Failed to start PPG\n\r");
  73              		.loc 1 33 0
  74 0024 2348     		ldr	r0, .L6+8
  75 0026 FFF7FEFF 		bl	print
  76              	.LVL5:
  34:main_cm4.c    ****         return 0;
  77              		.loc 1 34 0
  78 002a 3CE0     		b	.L3
  79              	.L4:
  35:main_cm4.c    ****     }
  36:main_cm4.c    ****     
  37:main_cm4.c    ****     /* Place your initialization/startup code here (e.g. MyInst_Start()) */
  38:main_cm4.c    **** 
  39:main_cm4.c    ****     for(;;)
  40:main_cm4.c    ****     {
  41:main_cm4.c    ****         updateIMU();
  80              		.loc 1 41 0 discriminator 1
  81 002c FFF7FEFF 		bl	updateIMU
  82              	.LVL6:
  42:main_cm4.c    ****         updateLEDs();
  83              		.loc 1 42 0 discriminator 1
  84 0030 FFF7FEFF 		bl	updateLEDs
  85              	.LVL7:
  43:main_cm4.c    ****         print("AccX:");
  86              		.loc 1 43 0 discriminator 1
  87 0034 2048     		ldr	r0, .L6+12
  88 0036 FFF7FEFF 		bl	print
  89              	.LVL8:
  44:main_cm4.c    ****         printDouble(imu.acc.g.x);
  90              		.loc 1 44 0 discriminator 1
  91 003a 204C     		ldr	r4, .L6+16
  92 003c D4E90001 		ldrd	r0, [r4]
  93 0040 FFF7FEFF 		bl	printDouble
  94              	.LVL9:
  45:main_cm4.c    ****         print(",AccY:");
  95              		.loc 1 45 0 discriminator 1
  96 0044 1E48     		ldr	r0, .L6+20
  97 0046 FFF7FEFF 		bl	print
  98              	.LVL10:
  46:main_cm4.c    ****         printDouble(imu.acc.g.y);
  99              		.loc 1 46 0 discriminator 1
 100 004a D4E90201 		ldrd	r0, [r4, #8]
 101 004e FFF7FEFF 		bl	printDouble
 102              	.LVL11:
  47:main_cm4.c    ****         print(",AccZ:");
 103              		.loc 1 47 0 discriminator 1
 104 0052 1C48     		ldr	r0, .L6+24
 105 0054 FFF7FEFF 		bl	print
 106              	.LVL12:
  48:main_cm4.c    ****         printDouble(imu.acc.g.z);
ARM GAS  C:\Users\NUSAIR~1\AppData\Local\Temp\cc57YB6U.s 			page 6


 107              		.loc 1 48 0 discriminator 1
 108 0058 D4E90401 		ldrd	r0, [r4, #16]
 109 005c FFF7FEFF 		bl	printDouble
 110              	.LVL13:
  49:main_cm4.c    ****         print(",GyroX:");
 111              		.loc 1 49 0 discriminator 1
 112 0060 1948     		ldr	r0, .L6+28
 113 0062 FFF7FEFF 		bl	print
 114              	.LVL14:
  50:main_cm4.c    ****         printDouble(imu.gyro.x);
 115              		.loc 1 50 0 discriminator 1
 116 0066 D4E90C01 		ldrd	r0, [r4, #48]
 117 006a FFF7FEFF 		bl	printDouble
 118              	.LVL15:
  51:main_cm4.c    ****         print(",GyroY:");
 119              		.loc 1 51 0 discriminator 1
 120 006e 1748     		ldr	r0, .L6+32
 121 0070 FFF7FEFF 		bl	print
 122              	.LVL16:
  52:main_cm4.c    ****         printDouble(imu.gyro.y);
 123              		.loc 1 52 0 discriminator 1
 124 0074 D4E90E01 		ldrd	r0, [r4, #56]
 125 0078 FFF7FEFF 		bl	printDouble
 126              	.LVL17:
  53:main_cm4.c    ****         print(",GyroZ:");
 127              		.loc 1 53 0 discriminator 1
 128 007c 1448     		ldr	r0, .L6+36
 129 007e FFF7FEFF 		bl	print
 130              	.LVL18:
  54:main_cm4.c    ****         printDouble(imu.gyro.z);
 131              		.loc 1 54 0 discriminator 1
 132 0082 D4E91001 		ldrd	r0, [r4, #64]
 133 0086 FFF7FEFF 		bl	printDouble
 134              	.LVL19:
  55:main_cm4.c    ****         
  56:main_cm4.c    ****         sprintf(str, ",IR:%u,Red:%u\n\r",ppg.ir,ppg.red);
 135              		.loc 1 56 0 discriminator 1
 136 008a 124A     		ldr	r2, .L6+40
 137 008c 5368     		ldr	r3, [r2, #4]
 138 008e 1268     		ldr	r2, [r2]
 139 0090 1149     		ldr	r1, .L6+44
 140 0092 01A8     		add	r0, sp, #4
 141 0094 FFF7FEFF 		bl	sprintf
 142              	.LVL20:
  57:main_cm4.c    ****         print(str);
 143              		.loc 1 57 0 discriminator 1
 144 0098 01A8     		add	r0, sp, #4
 145 009a FFF7FEFF 		bl	print
 146              	.LVL21:
  58:main_cm4.c    ****         
  59:main_cm4.c    ****         CyDelay(1);
 147              		.loc 1 59 0 discriminator 1
 148 009e 0120     		movs	r0, #1
 149 00a0 FFF7FEFF 		bl	Cy_SysLib_Delay
 150              	.LVL22:
 151 00a4 C2E7     		b	.L4
 152              	.L3:
ARM GAS  C:\Users\NUSAIR~1\AppData\Local\Temp\cc57YB6U.s 			page 7


  60:main_cm4.c    ****     }
  61:main_cm4.c    **** }
 153              		.loc 1 61 0
 154 00a6 0020     		movs	r0, #0
 155 00a8 1AB0     		add	sp, sp, #104
 156              		.cfi_def_cfa_offset 8
 157              		@ sp needed
 158 00aa 10BD     		pop	{r4, pc}
 159              	.L7:
 160              		.align	2
 161              	.L6:
 162 00ac 00000000 		.word	.LC0
 163 00b0 18000000 		.word	.LC1
 164 00b4 30000000 		.word	.LC2
 165 00b8 48000000 		.word	.LC3
 166 00bc 00000000 		.word	imu
 167 00c0 50000000 		.word	.LC4
 168 00c4 58000000 		.word	.LC5
 169 00c8 60000000 		.word	.LC6
 170 00cc 68000000 		.word	.LC7
 171 00d0 70000000 		.word	.LC8
 172 00d4 00000000 		.word	ppg
 173 00d8 78000000 		.word	.LC9
 174              		.cfi_endproc
 175              	.LFE555:
 176              		.size	main, .-main
 177              		.comm	ppg,8,4
 178              		.comm	imu,72,8
 179              		.section	.rodata.str1.4,"aMS",%progbits,1
 180              		.align	2
 181              	.LC0:
 182 0000 48656C6C 		.ascii	"Hello World, Master\012\015\000"
 182      6F20576F 
 182      726C642C 
 182      204D6173 
 182      7465720A 
 183 0016 0000     		.space	2
 184              	.LC1:
 185 0018 4661696C 		.ascii	"Failed to start IMU\012\015\000"
 185      65642074 
 185      6F207374 
 185      61727420 
 185      494D550A 
 186 002e 0000     		.space	2
 187              	.LC2:
 188 0030 4661696C 		.ascii	"Failed to start PPG\012\015\000"
 188      65642074 
 188      6F207374 
 188      61727420 
 188      5050470A 
 189 0046 0000     		.space	2
 190              	.LC3:
 191 0048 41636358 		.ascii	"AccX:\000"
 191      3A00
 192 004e 0000     		.space	2
 193              	.LC4:
 194 0050 2C416363 		.ascii	",AccY:\000"
ARM GAS  C:\Users\NUSAIR~1\AppData\Local\Temp\cc57YB6U.s 			page 8


 194      593A00
 195 0057 00       		.space	1
 196              	.LC5:
 197 0058 2C416363 		.ascii	",AccZ:\000"
 197      5A3A00
 198 005f 00       		.space	1
 199              	.LC6:
 200 0060 2C477972 		.ascii	",GyroX:\000"
 200      6F583A00 
 201              	.LC7:
 202 0068 2C477972 		.ascii	",GyroY:\000"
 202      6F593A00 
 203              	.LC8:
 204 0070 2C477972 		.ascii	",GyroZ:\000"
 204      6F5A3A00 
 205              	.LC9:
 206 0078 2C49523A 		.ascii	",IR:%u,Red:%u\012\015\000"
 206      25752C52 
 206      65643A25 
 206      750A0D00 
 207              		.text
 208              	.Letext0:
 209              		.file 3 "c:\\program files (x86)\\cypress\\psoc creator\\4.4\\psoc creator\\import\\gnu\\arm\\5.4.
 210              		.file 4 "c:\\program files (x86)\\cypress\\psoc creator\\4.4\\psoc creator\\import\\gnu\\arm\\5.4.
 211              		.file 5 "Generated_Source\\PSoC6\\pdl\\drivers/peripheral/device/cy_device.h"
 212              		.file 6 "Generated_Source\\PSoC6\\pdl\\drivers/peripheral/scb/cy_scb_i2c.h"
 213              		.file 7 "Generated_Source\\PSoC6\\pdl\\drivers/peripheral/scb/cy_scb_spi.h"
 214              		.file 8 "Generated_Source\\PSoC6\\pdl\\drivers/peripheral/scb/cy_scb_uart.h"
 215              		.file 9 "Generated_Source\\PSoC6\\pdl\\middleware/ble/cy_ble_stack.h"
 216              		.file 10 "Generated_Source\\PSoC6\\pdl\\middleware/ble/cy_ble_stack_host_main.h"
 217              		.file 11 "Generated_Source\\PSoC6\\pdl\\middleware/ble/cy_ble_gap.h"
 218              		.file 12 "IMU.h"
 219              		.file 13 "PPG.h"
 220              		.file 14 "Generated_Source\\PSoC6\\pdl\\cmsis/include/core_cm4.h"
 221              		.file 15 "Generated_Source\\PSoC6/UART.h"
 222              		.file 16 "Generated_Source\\PSoC6/ppgI2C.h"
 223              		.file 17 "Generated_Source\\PSoC6/imuSPI.h"
 224              		.file 18 "uartio.h"
 225              		.file 19 "c:\\program files (x86)\\cypress\\psoc creator\\4.4\\psoc creator\\import\\gnu\\arm\\5.4
 226              		.file 20 "Generated_Source\\PSoC6\\pdl\\drivers/peripheral/syslib/cy_syslib.h"