ARM GAS  C:\Users\NUSAIR~1\AppData\Local\Temp\cc2eRtDE.s 			page 1


   1              		.syntax unified
   2              		.cpu cortex-m4
   3              		.eabi_attribute 27, 1
   4              		.fpu fpv4-sp-d16
   5              		.eabi_attribute 20, 1
   6              		.eabi_attribute 21, 1
   7              		.eabi_attribute 23, 3
   8              		.eabi_attribute 24, 1
   9              		.eabi_attribute 25, 1
  10              		.eabi_attribute 26, 1
  11              		.eabi_attribute 30, 1
  12              		.eabi_attribute 34, 1
  13              		.eabi_attribute 18, 4
  14              		.thumb
  15              		.syntax unified
  16              		.file	"diskio.c"
  17              		.text
  18              	.Ltext0:
  19              		.cfi_sections	.debug_frame
  20              		.section	.text.disk_status,"ax",%progbits
  21              		.align	2
  22              		.global	disk_status
  23              		.thumb
  24              		.thumb_func
  25              		.type	disk_status, %function
  26              	disk_status:
  27              	.LFB0:
  28              		.file 1 "diskio.c"
   1:diskio.c      **** /*-----------------------------------------------------------------------*/
   2:diskio.c      **** /* Low level disk I/O module skeleton for FatFs     (C)ChaN, 2016        */
   3:diskio.c      **** /*-----------------------------------------------------------------------*/
   4:diskio.c      **** /* If a working storage control module is available, it should be        */
   5:diskio.c      **** /* attached to the FatFs via a glue function rather than modifying it.   */
   6:diskio.c      **** /* This is an example of glue functions to attach various exsisting      */
   7:diskio.c      **** /* storage control modules to the FatFs module with a defined API.       */
   8:diskio.c      **** /*-----------------------------------------------------------------------*/
   9:diskio.c      **** 
  10:diskio.c      **** #include "diskio.h"		/* FatFs lower layer API */
  11:diskio.c      **** 
  12:diskio.c      **** /* Definitions of physical drive number for each drive */
  13:diskio.c      **** #define DEV_RAM		0	/* Example: Map Ramdisk to physical drive 0 */
  14:diskio.c      **** #define DEV_MMC		1	/* Example: Map MMC/SD card to physical drive 1 */
  15:diskio.c      **** #define DEV_USB		2	/* Example: Map USB MSD to physical drive 2 */
  16:diskio.c      **** 
  17:diskio.c      **** 
  18:diskio.c      **** /*-----------------------------------------------------------------------*/
  19:diskio.c      **** /* Get Drive Status                                                      */
  20:diskio.c      **** /*-----------------------------------------------------------------------*/
  21:diskio.c      **** 
  22:diskio.c      **** DSTATUS disk_status (
  23:diskio.c      **** 	BYTE pdrv		/* Physical drive nmuber to identify the drive */
  24:diskio.c      **** )
  25:diskio.c      **** {
  29              		.loc 1 25 0
  30              		.cfi_startproc
  31              		@ args = 0, pretend = 0, frame = 0
  32              		@ frame_needed = 0, uses_anonymous_args = 0
ARM GAS  C:\Users\NUSAIR~1\AppData\Local\Temp\cc2eRtDE.s 			page 2


  33              	.LVL0:
  34 0000 08B5     		push	{r3, lr}
  35              		.cfi_def_cfa_offset 8
  36              		.cfi_offset 3, -8
  37              		.cfi_offset 14, -4
  26:diskio.c      **** 	DSTATUS stat;
  27:diskio.c      **** 	int result;
  28:diskio.c      **** 
  29:diskio.c      **** 	switch (pdrv) {
  38              		.loc 1 29 0
  39 0002 0128     		cmp	r0, #1
  40 0004 06D0     		beq	.L3
  41 0006 10B1     		cbz	r0, .L4
  42 0008 0228     		cmp	r0, #2
  43 000a 06D0     		beq	.L5
  44 000c 07E0     		b	.L2
  45              	.L4:
  46              	.LBB2:
  30:diskio.c      **** 	case DEV_RAM :
  31:diskio.c      **** 		result = RAM_disk_status();
  47              		.loc 1 31 0
  48 000e FFF7FEFF 		bl	RAM_disk_status
  49              	.LVL1:
  32:diskio.c      **** 
  33:diskio.c      **** 		// translate the reslut code here
  34:diskio.c      **** 
  35:diskio.c      **** 		return stat;
  50              		.loc 1 35 0
  51 0012 04E0     		b	.L2
  52              	.LVL2:
  53              	.L3:
  36:diskio.c      **** 
  37:diskio.c      **** 	case DEV_MMC :
  38:diskio.c      **** 		result = MMC_disk_status();
  54              		.loc 1 38 0
  55 0014 FFF7FEFF 		bl	MMC_disk_status
  56              	.LVL3:
  39:diskio.c      **** 
  40:diskio.c      **** 		// translate the reslut code here
  41:diskio.c      **** 
  42:diskio.c      **** 		return stat;
  57              		.loc 1 42 0
  58 0018 01E0     		b	.L2
  59              	.LVL4:
  60              	.L5:
  43:diskio.c      **** 
  44:diskio.c      **** 	case DEV_USB :
  45:diskio.c      **** 		result = USB_disk_status();
  61              		.loc 1 45 0
  62 001a FFF7FEFF 		bl	USB_disk_status
  63              	.LVL5:
  64              	.L2:
  65              	.LBE2:
  46:diskio.c      **** 
  47:diskio.c      **** 		// translate the reslut code here
  48:diskio.c      **** 
  49:diskio.c      **** 		return stat;
ARM GAS  C:\Users\NUSAIR~1\AppData\Local\Temp\cc2eRtDE.s 			page 3


  50:diskio.c      **** 	}
  51:diskio.c      **** 	return STA_NOINIT;
  52:diskio.c      **** }
  66              		.loc 1 52 0
  67 001e 0120     		movs	r0, #1
  68 0020 08BD     		pop	{r3, pc}
  69              		.cfi_endproc
  70              	.LFE0:
  71              		.size	disk_status, .-disk_status
  72 0022 00BF     		.section	.text.disk_initialize,"ax",%progbits
  73              		.align	2
  74              		.global	disk_initialize
  75              		.thumb
  76              		.thumb_func
  77              		.type	disk_initialize, %function
  78              	disk_initialize:
  79              	.LFB1:
  53:diskio.c      **** 
  54:diskio.c      **** 
  55:diskio.c      **** 
  56:diskio.c      **** /*-----------------------------------------------------------------------*/
  57:diskio.c      **** /* Inidialize a Drive                                                    */
  58:diskio.c      **** /*-----------------------------------------------------------------------*/
  59:diskio.c      **** 
  60:diskio.c      **** DSTATUS disk_initialize (
  61:diskio.c      **** 	BYTE pdrv				/* Physical drive nmuber to identify the drive */
  62:diskio.c      **** )
  63:diskio.c      **** {
  80              		.loc 1 63 0
  81              		.cfi_startproc
  82              		@ args = 0, pretend = 0, frame = 0
  83              		@ frame_needed = 0, uses_anonymous_args = 0
  84              	.LVL6:
  85 0000 08B5     		push	{r3, lr}
  86              		.cfi_def_cfa_offset 8
  87              		.cfi_offset 3, -8
  88              		.cfi_offset 14, -4
  64:diskio.c      **** 	DSTATUS stat;
  65:diskio.c      **** 	int result;
  66:diskio.c      **** 
  67:diskio.c      **** 	switch (pdrv) {
  89              		.loc 1 67 0
  90 0002 0128     		cmp	r0, #1
  91 0004 06D0     		beq	.L9
  92 0006 10B1     		cbz	r0, .L10
  93 0008 0228     		cmp	r0, #2
  94 000a 06D0     		beq	.L11
  95 000c 07E0     		b	.L8
  96              	.L10:
  97              	.LBB3:
  68:diskio.c      **** 	case DEV_RAM :
  69:diskio.c      **** 		result = RAM_disk_initialize();
  98              		.loc 1 69 0
  99 000e FFF7FEFF 		bl	RAM_disk_initialize
 100              	.LVL7:
  70:diskio.c      **** 
  71:diskio.c      **** 		// translate the reslut code here
ARM GAS  C:\Users\NUSAIR~1\AppData\Local\Temp\cc2eRtDE.s 			page 4


  72:diskio.c      **** 
  73:diskio.c      **** 		return stat;
 101              		.loc 1 73 0
 102 0012 04E0     		b	.L8
 103              	.LVL8:
 104              	.L9:
  74:diskio.c      **** 
  75:diskio.c      **** 	case DEV_MMC :
  76:diskio.c      **** 		result = MMC_disk_initialize();
 105              		.loc 1 76 0
 106 0014 FFF7FEFF 		bl	MMC_disk_initialize
 107              	.LVL9:
  77:diskio.c      **** 
  78:diskio.c      **** 		// translate the reslut code here
  79:diskio.c      **** 
  80:diskio.c      **** 		return stat;
 108              		.loc 1 80 0
 109 0018 01E0     		b	.L8
 110              	.LVL10:
 111              	.L11:
  81:diskio.c      **** 
  82:diskio.c      **** 	case DEV_USB :
  83:diskio.c      **** 		result = USB_disk_initialize();
 112              		.loc 1 83 0
 113 001a FFF7FEFF 		bl	USB_disk_initialize
 114              	.LVL11:
 115              	.L8:
 116              	.LBE3:
  84:diskio.c      **** 
  85:diskio.c      **** 		// translate the reslut code here
  86:diskio.c      **** 
  87:diskio.c      **** 		return stat;
  88:diskio.c      **** 	}
  89:diskio.c      **** 	return STA_NOINIT;
  90:diskio.c      **** }
 117              		.loc 1 90 0
 118 001e 0120     		movs	r0, #1
 119 0020 08BD     		pop	{r3, pc}
 120              		.cfi_endproc
 121              	.LFE1:
 122              		.size	disk_initialize, .-disk_initialize
 123 0022 00BF     		.section	.text.disk_read,"ax",%progbits
 124              		.align	2
 125              		.global	disk_read
 126              		.thumb
 127              		.thumb_func
 128              		.type	disk_read, %function
 129              	disk_read:
 130              	.LFB2:
  91:diskio.c      **** 
  92:diskio.c      **** 
  93:diskio.c      **** 
  94:diskio.c      **** /*-----------------------------------------------------------------------*/
  95:diskio.c      **** /* Read Sector(s)                                                        */
  96:diskio.c      **** /*-----------------------------------------------------------------------*/
  97:diskio.c      **** 
  98:diskio.c      **** DRESULT disk_read (
ARM GAS  C:\Users\NUSAIR~1\AppData\Local\Temp\cc2eRtDE.s 			page 5


  99:diskio.c      **** 	BYTE pdrv,		/* Physical drive nmuber to identify the drive */
 100:diskio.c      **** 	BYTE *buff,		/* Data buffer to store read data */
 101:diskio.c      **** 	DWORD sector,	/* Start sector in LBA */
 102:diskio.c      **** 	UINT count		/* Number of sectors to read */
 103:diskio.c      **** )
 104:diskio.c      **** {
 131              		.loc 1 104 0
 132              		.cfi_startproc
 133              		@ args = 0, pretend = 0, frame = 0
 134              		@ frame_needed = 0, uses_anonymous_args = 0
 135              	.LVL12:
 136 0000 10B5     		push	{r4, lr}
 137              		.cfi_def_cfa_offset 8
 138              		.cfi_offset 4, -8
 139              		.cfi_offset 14, -4
 140 0002 0C46     		mov	r4, r1
 141 0004 1146     		mov	r1, r2
 142              	.LVL13:
 105:diskio.c      **** 	DRESULT res;
 106:diskio.c      **** 	int result;
 107:diskio.c      **** 
 108:diskio.c      **** 	switch (pdrv) {
 143              		.loc 1 108 0
 144 0006 0128     		cmp	r0, #1
 145 0008 08D0     		beq	.L15
 146 000a 10B1     		cbz	r0, .L16
 147 000c 0228     		cmp	r0, #2
 148 000e 0AD0     		beq	.L17
 149 0010 0DE0     		b	.L14
 150              	.L16:
 151              	.LBB4:
 109:diskio.c      **** 	case DEV_RAM :
 110:diskio.c      **** 		// translate the arguments here
 111:diskio.c      **** 
 112:diskio.c      **** 		result = RAM_disk_read(buff, sector, count);
 152              		.loc 1 112 0
 153 0012 1A46     		mov	r2, r3
 154              	.LVL14:
 155 0014 2046     		mov	r0, r4
 156              	.LVL15:
 157 0016 FFF7FEFF 		bl	RAM_disk_read
 158              	.LVL16:
 113:diskio.c      **** 
 114:diskio.c      **** 		// translate the reslut code here
 115:diskio.c      **** 
 116:diskio.c      **** 		return res;
 159              		.loc 1 116 0
 160 001a 08E0     		b	.L14
 161              	.LVL17:
 162              	.L15:
 117:diskio.c      **** 
 118:diskio.c      **** 	case DEV_MMC :
 119:diskio.c      **** 		// translate the arguments here
 120:diskio.c      **** 
 121:diskio.c      **** 		result = MMC_disk_read(buff, sector, count);
 163              		.loc 1 121 0
 164 001c 1A46     		mov	r2, r3
ARM GAS  C:\Users\NUSAIR~1\AppData\Local\Temp\cc2eRtDE.s 			page 6


 165 001e 2046     		mov	r0, r4
 166              	.LVL18:
 167 0020 FFF7FEFF 		bl	MMC_disk_read
 168              	.LVL19:
 122:diskio.c      **** 
 123:diskio.c      **** 		// translate the reslut code here
 124:diskio.c      **** 
 125:diskio.c      **** 		return res;
 169              		.loc 1 125 0
 170 0024 03E0     		b	.L14
 171              	.LVL20:
 172              	.L17:
 126:diskio.c      **** 
 127:diskio.c      **** 	case DEV_USB :
 128:diskio.c      **** 		// translate the arguments here
 129:diskio.c      **** 
 130:diskio.c      **** 		result = USB_disk_read(buff, sector, count);
 173              		.loc 1 130 0
 174 0026 1A46     		mov	r2, r3
 175 0028 2046     		mov	r0, r4
 176              	.LVL21:
 177 002a FFF7FEFF 		bl	USB_disk_read
 178              	.LVL22:
 179              	.L14:
 180              	.LBE4:
 131:diskio.c      **** 
 132:diskio.c      **** 		// translate the reslut code here
 133:diskio.c      **** 
 134:diskio.c      **** 		return res;
 135:diskio.c      **** 	}
 136:diskio.c      **** 
 137:diskio.c      **** 	return RES_PARERR;
 138:diskio.c      **** }
 181              		.loc 1 138 0
 182 002e 0420     		movs	r0, #4
 183 0030 10BD     		pop	{r4, pc}
 184              		.cfi_endproc
 185              	.LFE2:
 186              		.size	disk_read, .-disk_read
 187 0032 00BF     		.section	.text.disk_write,"ax",%progbits
 188              		.align	2
 189              		.global	disk_write
 190              		.thumb
 191              		.thumb_func
 192              		.type	disk_write, %function
 193              	disk_write:
 194              	.LFB3:
 139:diskio.c      **** 
 140:diskio.c      **** 
 141:diskio.c      **** 
 142:diskio.c      **** /*-----------------------------------------------------------------------*/
 143:diskio.c      **** /* Write Sector(s)                                                       */
 144:diskio.c      **** /*-----------------------------------------------------------------------*/
 145:diskio.c      **** 
 146:diskio.c      **** DRESULT disk_write (
 147:diskio.c      **** 	BYTE pdrv,			/* Physical drive nmuber to identify the drive */
 148:diskio.c      **** 	const BYTE *buff,	/* Data to be written */
ARM GAS  C:\Users\NUSAIR~1\AppData\Local\Temp\cc2eRtDE.s 			page 7


 149:diskio.c      **** 	DWORD sector,		/* Start sector in LBA */
 150:diskio.c      **** 	UINT count			/* Number of sectors to write */
 151:diskio.c      **** )
 152:diskio.c      **** {
 195              		.loc 1 152 0
 196              		.cfi_startproc
 197              		@ args = 0, pretend = 0, frame = 0
 198              		@ frame_needed = 0, uses_anonymous_args = 0
 199              	.LVL23:
 200 0000 10B5     		push	{r4, lr}
 201              		.cfi_def_cfa_offset 8
 202              		.cfi_offset 4, -8
 203              		.cfi_offset 14, -4
 204 0002 0C46     		mov	r4, r1
 205 0004 1146     		mov	r1, r2
 206              	.LVL24:
 153:diskio.c      **** 	DRESULT res;
 154:diskio.c      **** 	int result;
 155:diskio.c      **** 
 156:diskio.c      **** 	switch (pdrv) {
 207              		.loc 1 156 0
 208 0006 0128     		cmp	r0, #1
 209 0008 08D0     		beq	.L21
 210 000a 10B1     		cbz	r0, .L22
 211 000c 0228     		cmp	r0, #2
 212 000e 0AD0     		beq	.L23
 213 0010 0DE0     		b	.L20
 214              	.L22:
 215              	.LBB5:
 157:diskio.c      **** 	case DEV_RAM :
 158:diskio.c      **** 		// translate the arguments here
 159:diskio.c      **** 
 160:diskio.c      **** 		result = RAM_disk_write(buff, sector, count);
 216              		.loc 1 160 0
 217 0012 1A46     		mov	r2, r3
 218              	.LVL25:
 219 0014 2046     		mov	r0, r4
 220              	.LVL26:
 221 0016 FFF7FEFF 		bl	RAM_disk_write
 222              	.LVL27:
 161:diskio.c      **** 
 162:diskio.c      **** 		// translate the reslut code here
 163:diskio.c      **** 
 164:diskio.c      **** 		return res;
 223              		.loc 1 164 0
 224 001a 08E0     		b	.L20
 225              	.LVL28:
 226              	.L21:
 165:diskio.c      **** 
 166:diskio.c      **** 	case DEV_MMC :
 167:diskio.c      **** 		// translate the arguments here
 168:diskio.c      **** 
 169:diskio.c      **** 		result = MMC_disk_write(buff, sector, count);
 227              		.loc 1 169 0
 228 001c 1A46     		mov	r2, r3
 229 001e 2046     		mov	r0, r4
 230              	.LVL29:
ARM GAS  C:\Users\NUSAIR~1\AppData\Local\Temp\cc2eRtDE.s 			page 8


 231 0020 FFF7FEFF 		bl	MMC_disk_write
 232              	.LVL30:
 170:diskio.c      **** 
 171:diskio.c      **** 		// translate the reslut code here
 172:diskio.c      **** 
 173:diskio.c      **** 		return res;
 233              		.loc 1 173 0
 234 0024 03E0     		b	.L20
 235              	.LVL31:
 236              	.L23:
 174:diskio.c      **** 
 175:diskio.c      **** 	case DEV_USB :
 176:diskio.c      **** 		// translate the arguments here
 177:diskio.c      **** 
 178:diskio.c      **** 		result = USB_disk_write(buff, sector, count);
 237              		.loc 1 178 0
 238 0026 1A46     		mov	r2, r3
 239 0028 2046     		mov	r0, r4
 240              	.LVL32:
 241 002a FFF7FEFF 		bl	USB_disk_write
 242              	.LVL33:
 243              	.L20:
 244              	.LBE5:
 179:diskio.c      **** 
 180:diskio.c      **** 		// translate the reslut code here
 181:diskio.c      **** 
 182:diskio.c      **** 		return res;
 183:diskio.c      **** 	}
 184:diskio.c      **** 
 185:diskio.c      **** 	return RES_PARERR;
 186:diskio.c      **** }
 245              		.loc 1 186 0
 246 002e 0420     		movs	r0, #4
 247 0030 10BD     		pop	{r4, pc}
 248              		.cfi_endproc
 249              	.LFE3:
 250              		.size	disk_write, .-disk_write
 251 0032 00BF     		.section	.text.disk_ioctl,"ax",%progbits
 252              		.align	2
 253              		.global	disk_ioctl
 254              		.thumb
 255              		.thumb_func
 256              		.type	disk_ioctl, %function
 257              	disk_ioctl:
 258              	.LFB4:
 187:diskio.c      **** 
 188:diskio.c      **** 
 189:diskio.c      **** 
 190:diskio.c      **** /*-----------------------------------------------------------------------*/
 191:diskio.c      **** /* Miscellaneous Functions                                               */
 192:diskio.c      **** /*-----------------------------------------------------------------------*/
 193:diskio.c      **** 
 194:diskio.c      **** DRESULT disk_ioctl (
 195:diskio.c      **** 	BYTE pdrv,		/* Physical drive nmuber (0..) */
 196:diskio.c      **** 	BYTE cmd,		/* Control code */
 197:diskio.c      **** 	void *buff		/* Buffer to send/receive control data */
 198:diskio.c      **** )
ARM GAS  C:\Users\NUSAIR~1\AppData\Local\Temp\cc2eRtDE.s 			page 9


 199:diskio.c      **** {
 259              		.loc 1 199 0
 260              		.cfi_startproc
 261              		@ args = 0, pretend = 0, frame = 0
 262              		@ frame_needed = 0, uses_anonymous_args = 0
 263              		@ link register save eliminated.
 264              	.LVL34:
 200:diskio.c      **** 	DRESULT res;
 201:diskio.c      **** 	int result;
 202:diskio.c      **** 
 203:diskio.c      **** 	switch (pdrv) {
 204:diskio.c      **** 	case DEV_RAM :
 205:diskio.c      **** 
 206:diskio.c      **** 		// Process of the command for the RAM drive
 207:diskio.c      **** 
 208:diskio.c      **** 		return res;
 209:diskio.c      **** 
 210:diskio.c      **** 	case DEV_MMC :
 211:diskio.c      **** 
 212:diskio.c      **** 		// Process of the command for the MMC/SD card
 213:diskio.c      **** 
 214:diskio.c      **** 		return res;
 215:diskio.c      **** 
 216:diskio.c      **** 	case DEV_USB :
 217:diskio.c      **** 
 218:diskio.c      **** 		// Process of the command the USB drive
 219:diskio.c      **** 
 220:diskio.c      **** 		return res;
 221:diskio.c      **** 	}
 222:diskio.c      **** 
 223:diskio.c      **** 	return RES_PARERR;
 224:diskio.c      **** }
 265              		.loc 1 224 0
 266 0000 0420     		movs	r0, #4
 267              	.LVL35:
 268 0002 7047     		bx	lr
 269              		.cfi_endproc
 270              	.LFE4:
 271              		.size	disk_ioctl, .-disk_ioctl
 272              		.text
 273              	.Letext0:
 274              		.file 2 "integer.h"
 275              		.file 3 "diskio.h"