ARM GAS  C:\Users\NUSAIR~1\AppData\Local\Temp\ccFqg92r.s 			page 1


   1              		.syntax unified
   2              		.cpu cortex-m0plus
   3              		.fpu softvfp
   4              		.eabi_attribute 20, 1
   5              		.eabi_attribute 21, 1
   6              		.eabi_attribute 23, 3
   7              		.eabi_attribute 24, 1
   8              		.eabi_attribute 25, 1
   9              		.eabi_attribute 26, 1
  10              		.eabi_attribute 30, 1
  11              		.eabi_attribute 34, 0
  12              		.eabi_attribute 18, 4
  13              		.thumb
  14              		.syntax unified
  15              		.file	"ff.c"
  16              		.text
  17              	.Ltext0:
  18              		.cfi_sections	.debug_frame
  19              		.section	.text.ld_word,"ax",%progbits
  20              		.align	2
  21              		.code	16
  22              		.thumb_func
  23              		.type	ld_word, %function
  24              	ld_word:
  25              	.LFB0:
  26              		.file 1 "..\\..\\FatFS-master\\source\\ff.c"
   1:..\..\FatFS-master\source/ff.c **** /*----------------------------------------------------------------------------/
   2:..\..\FatFS-master\source/ff.c **** /  FatFs - Generic FAT Filesystem Module  R0.13a                              /
   3:..\..\FatFS-master\source/ff.c **** /-----------------------------------------------------------------------------/
   4:..\..\FatFS-master\source/ff.c **** /
   5:..\..\FatFS-master\source/ff.c **** / Copyright (C) 2017, ChaN, all right reserved.
   6:..\..\FatFS-master\source/ff.c **** /
   7:..\..\FatFS-master\source/ff.c **** / FatFs module is an open source software. Redistribution and use of FatFs in
   8:..\..\FatFS-master\source/ff.c **** / source and binary forms, with or without modification, are permitted provided
   9:..\..\FatFS-master\source/ff.c **** / that the following condition is met:
  10:..\..\FatFS-master\source/ff.c **** /
  11:..\..\FatFS-master\source/ff.c **** / 1. Redistributions of source code must retain the above copyright notice,
  12:..\..\FatFS-master\source/ff.c **** /    this condition and the following disclaimer.
  13:..\..\FatFS-master\source/ff.c **** /
  14:..\..\FatFS-master\source/ff.c **** / This software is provided by the copyright holder and contributors "AS IS"
  15:..\..\FatFS-master\source/ff.c **** / and any warranties related to this software are DISCLAIMED.
  16:..\..\FatFS-master\source/ff.c **** / The copyright owner or contributors be NOT LIABLE for any damages caused
  17:..\..\FatFS-master\source/ff.c **** / by use of this software.
  18:..\..\FatFS-master\source/ff.c **** /
  19:..\..\FatFS-master\source/ff.c **** /----------------------------------------------------------------------------*/
  20:..\..\FatFS-master\source/ff.c **** 
  21:..\..\FatFS-master\source/ff.c **** 
  22:..\..\FatFS-master\source/ff.c **** #include "ff.h"			/* Declarations of FatFs API */
  23:..\..\FatFS-master\source/ff.c **** #include "diskio.h"		/* Declarations of device I/O functions */
  24:..\..\FatFS-master\source/ff.c **** 
  25:..\..\FatFS-master\source/ff.c **** 
  26:..\..\FatFS-master\source/ff.c **** /*--------------------------------------------------------------------------
  27:..\..\FatFS-master\source/ff.c **** 
  28:..\..\FatFS-master\source/ff.c ****    Module Private Definitions
  29:..\..\FatFS-master\source/ff.c **** 
  30:..\..\FatFS-master\source/ff.c **** ---------------------------------------------------------------------------*/
  31:..\..\FatFS-master\source/ff.c **** 
ARM GAS  C:\Users\NUSAIR~1\AppData\Local\Temp\ccFqg92r.s 			page 2


  32:..\..\FatFS-master\source/ff.c **** #if FF_DEFINED != 89352	/* Revision ID */
  33:..\..\FatFS-master\source/ff.c **** #error Wrong include file (ff.h).
  34:..\..\FatFS-master\source/ff.c **** #endif
  35:..\..\FatFS-master\source/ff.c **** 
  36:..\..\FatFS-master\source/ff.c **** 
  37:..\..\FatFS-master\source/ff.c **** /* Character code support macros */
  38:..\..\FatFS-master\source/ff.c **** #define IsUpper(c)		((c) >= 'A' && (c) <= 'Z')
  39:..\..\FatFS-master\source/ff.c **** #define IsLower(c)		((c) >= 'a' && (c) <= 'z')
  40:..\..\FatFS-master\source/ff.c **** #define IsDigit(c)		((c) >= '0' && (c) <= '9')
  41:..\..\FatFS-master\source/ff.c **** #define IsSurrogate(c)	((c) >= 0xD800 && (c) <= 0xDFFF)
  42:..\..\FatFS-master\source/ff.c **** #define IsSurrogateH(c)	((c) >= 0xD800 && (c) <= 0xDBFF)
  43:..\..\FatFS-master\source/ff.c **** #define IsSurrogateL(c)	((c) >= 0xDC00 && (c) <= 0xDFFF)
  44:..\..\FatFS-master\source/ff.c **** 
  45:..\..\FatFS-master\source/ff.c **** 
  46:..\..\FatFS-master\source/ff.c **** /* Additional file attribute bits for internal use */
  47:..\..\FatFS-master\source/ff.c **** #define AM_VOL		0x08	/* Volume label */
  48:..\..\FatFS-master\source/ff.c **** #define AM_LFN		0x0F	/* LFN entry */
  49:..\..\FatFS-master\source/ff.c **** #define AM_MASK		0x3F	/* Mask of defined bits */
  50:..\..\FatFS-master\source/ff.c **** 
  51:..\..\FatFS-master\source/ff.c **** 
  52:..\..\FatFS-master\source/ff.c **** /* Additional file access control and file status flags for internal use */
  53:..\..\FatFS-master\source/ff.c **** #define FA_SEEKEND	0x20	/* Seek to end of the file on file open */
  54:..\..\FatFS-master\source/ff.c **** #define FA_MODIFIED	0x40	/* File has been modified */
  55:..\..\FatFS-master\source/ff.c **** #define FA_DIRTY	0x80	/* FIL.buf[] needs to be written-back */
  56:..\..\FatFS-master\source/ff.c **** 
  57:..\..\FatFS-master\source/ff.c **** 
  58:..\..\FatFS-master\source/ff.c **** /* Name status flags in fn[11] */
  59:..\..\FatFS-master\source/ff.c **** #define NSFLAG		11		/* Index of the name status byte */
  60:..\..\FatFS-master\source/ff.c **** #define NS_LOSS		0x01	/* Out of 8.3 format */
  61:..\..\FatFS-master\source/ff.c **** #define NS_LFN		0x02	/* Force to create LFN entry */
  62:..\..\FatFS-master\source/ff.c **** #define NS_LAST		0x04	/* Last segment */
  63:..\..\FatFS-master\source/ff.c **** #define NS_BODY		0x08	/* Lower case flag (body) */
  64:..\..\FatFS-master\source/ff.c **** #define NS_EXT		0x10	/* Lower case flag (ext) */
  65:..\..\FatFS-master\source/ff.c **** #define NS_DOT		0x20	/* Dot entry */
  66:..\..\FatFS-master\source/ff.c **** #define NS_NOLFN	0x40	/* Do not find LFN */
  67:..\..\FatFS-master\source/ff.c **** #define NS_NONAME	0x80	/* Not followed */
  68:..\..\FatFS-master\source/ff.c **** 
  69:..\..\FatFS-master\source/ff.c **** 
  70:..\..\FatFS-master\source/ff.c **** /* Limits and boundaries */
  71:..\..\FatFS-master\source/ff.c **** #define MAX_DIR		0x200000		/* Max size of FAT directory */
  72:..\..\FatFS-master\source/ff.c **** #define MAX_DIR_EX	0x10000000		/* Max size of exFAT directory */
  73:..\..\FatFS-master\source/ff.c **** #define MAX_FAT12	0xFF5			/* Max FAT12 clusters (differs from specs, but right for real DOS/Windows
  74:..\..\FatFS-master\source/ff.c **** #define MAX_FAT16	0xFFF5			/* Max FAT16 clusters (differs from specs, but right for real DOS/Window
  75:..\..\FatFS-master\source/ff.c **** #define MAX_FAT32	0x0FFFFFF5		/* Max FAT32 clusters (not specified, practical limit) */
  76:..\..\FatFS-master\source/ff.c **** #define MAX_EXFAT	0x7FFFFFFD		/* Max exFAT clusters (differs from specs, implementation limit) */
  77:..\..\FatFS-master\source/ff.c **** 
  78:..\..\FatFS-master\source/ff.c **** 
  79:..\..\FatFS-master\source/ff.c **** /* FatFs refers the FAT structure as simple byte array instead of structure member
  80:..\..\FatFS-master\source/ff.c **** / because the C structure is not binary compatible between different platforms */
  81:..\..\FatFS-master\source/ff.c **** 
  82:..\..\FatFS-master\source/ff.c **** #define BS_JmpBoot			0		/* x86 jump instruction (3-byte) */
  83:..\..\FatFS-master\source/ff.c **** #define BS_OEMName			3		/* OEM name (8-byte) */
  84:..\..\FatFS-master\source/ff.c **** #define BPB_BytsPerSec		11		/* Sector size [byte] (WORD) */
  85:..\..\FatFS-master\source/ff.c **** #define BPB_SecPerClus		13		/* Cluster size [sector] (BYTE) */
  86:..\..\FatFS-master\source/ff.c **** #define BPB_RsvdSecCnt		14		/* Size of reserved area [sector] (WORD) */
  87:..\..\FatFS-master\source/ff.c **** #define BPB_NumFATs			16		/* Number of FATs (BYTE) */
  88:..\..\FatFS-master\source/ff.c **** #define BPB_RootEntCnt		17		/* Size of root directory area for FAT [entry] (WORD) */
ARM GAS  C:\Users\NUSAIR~1\AppData\Local\Temp\ccFqg92r.s 			page 3


  89:..\..\FatFS-master\source/ff.c **** #define BPB_TotSec16		19		/* Volume size (16-bit) [sector] (WORD) */
  90:..\..\FatFS-master\source/ff.c **** #define BPB_Media			21		/* Media descriptor byte (BYTE) */
  91:..\..\FatFS-master\source/ff.c **** #define BPB_FATSz16			22		/* FAT size (16-bit) [sector] (WORD) */
  92:..\..\FatFS-master\source/ff.c **** #define BPB_SecPerTrk		24		/* Number of sectors per track for int13h [sector] (WORD) */
  93:..\..\FatFS-master\source/ff.c **** #define BPB_NumHeads		26		/* Number of heads for int13h (WORD) */
  94:..\..\FatFS-master\source/ff.c **** #define BPB_HiddSec			28		/* Volume offset from top of the drive (DWORD) */
  95:..\..\FatFS-master\source/ff.c **** #define BPB_TotSec32		32		/* Volume size (32-bit) [sector] (DWORD) */
  96:..\..\FatFS-master\source/ff.c **** #define BS_DrvNum			36		/* Physical drive number for int13h (BYTE) */
  97:..\..\FatFS-master\source/ff.c **** #define BS_NTres			37		/* WindowsNT error flag (BYTE) */
  98:..\..\FatFS-master\source/ff.c **** #define BS_BootSig			38		/* Extended boot signature (BYTE) */
  99:..\..\FatFS-master\source/ff.c **** #define BS_VolID			39		/* Volume serial number (DWORD) */
 100:..\..\FatFS-master\source/ff.c **** #define BS_VolLab			43		/* Volume label string (8-byte) */
 101:..\..\FatFS-master\source/ff.c **** #define BS_FilSysType		54		/* Filesystem type string (8-byte) */
 102:..\..\FatFS-master\source/ff.c **** #define BS_BootCode			62		/* Boot code (448-byte) */
 103:..\..\FatFS-master\source/ff.c **** #define BS_55AA				510		/* Signature word (WORD) */
 104:..\..\FatFS-master\source/ff.c **** 
 105:..\..\FatFS-master\source/ff.c **** #define BPB_FATSz32			36		/* FAT32: FAT size [sector] (DWORD) */
 106:..\..\FatFS-master\source/ff.c **** #define BPB_ExtFlags32		40		/* FAT32: Extended flags (WORD) */
 107:..\..\FatFS-master\source/ff.c **** #define BPB_FSVer32			42		/* FAT32: Filesystem version (WORD) */
 108:..\..\FatFS-master\source/ff.c **** #define BPB_RootClus32		44		/* FAT32: Root directory cluster (DWORD) */
 109:..\..\FatFS-master\source/ff.c **** #define BPB_FSInfo32		48		/* FAT32: Offset of FSINFO sector (WORD) */
 110:..\..\FatFS-master\source/ff.c **** #define BPB_BkBootSec32		50		/* FAT32: Offset of backup boot sector (WORD) */
 111:..\..\FatFS-master\source/ff.c **** #define BS_DrvNum32			64		/* FAT32: Physical drive number for int13h (BYTE) */
 112:..\..\FatFS-master\source/ff.c **** #define BS_NTres32			65		/* FAT32: Error flag (BYTE) */
 113:..\..\FatFS-master\source/ff.c **** #define BS_BootSig32		66		/* FAT32: Extended boot signature (BYTE) */
 114:..\..\FatFS-master\source/ff.c **** #define BS_VolID32			67		/* FAT32: Volume serial number (DWORD) */
 115:..\..\FatFS-master\source/ff.c **** #define BS_VolLab32			71		/* FAT32: Volume label string (8-byte) */
 116:..\..\FatFS-master\source/ff.c **** #define BS_FilSysType32		82		/* FAT32: Filesystem type string (8-byte) */
 117:..\..\FatFS-master\source/ff.c **** #define BS_BootCode32		90		/* FAT32: Boot code (420-byte) */
 118:..\..\FatFS-master\source/ff.c **** 
 119:..\..\FatFS-master\source/ff.c **** #define BPB_ZeroedEx		11		/* exFAT: MBZ field (53-byte) */
 120:..\..\FatFS-master\source/ff.c **** #define BPB_VolOfsEx		64		/* exFAT: Volume offset from top of the drive [sector] (QWORD) */
 121:..\..\FatFS-master\source/ff.c **** #define BPB_TotSecEx		72		/* exFAT: Volume size [sector] (QWORD) */
 122:..\..\FatFS-master\source/ff.c **** #define BPB_FatOfsEx		80		/* exFAT: FAT offset from top of the volume [sector] (DWORD) */
 123:..\..\FatFS-master\source/ff.c **** #define BPB_FatSzEx			84		/* exFAT: FAT size [sector] (DWORD) */
 124:..\..\FatFS-master\source/ff.c **** #define BPB_DataOfsEx		88		/* exFAT: Data offset from top of the volume [sector] (DWORD) */
 125:..\..\FatFS-master\source/ff.c **** #define BPB_NumClusEx		92		/* exFAT: Number of clusters (DWORD) */
 126:..\..\FatFS-master\source/ff.c **** #define BPB_RootClusEx		96		/* exFAT: Root directory start cluster (DWORD) */
 127:..\..\FatFS-master\source/ff.c **** #define BPB_VolIDEx			100		/* exFAT: Volume serial number (DWORD) */
 128:..\..\FatFS-master\source/ff.c **** #define BPB_FSVerEx			104		/* exFAT: Filesystem version (WORD) */
 129:..\..\FatFS-master\source/ff.c **** #define BPB_VolFlagEx		106		/* exFAT: Volume flags (WORD) */
 130:..\..\FatFS-master\source/ff.c **** #define BPB_BytsPerSecEx	108		/* exFAT: Log2 of sector size in unit of byte (BYTE) */
 131:..\..\FatFS-master\source/ff.c **** #define BPB_SecPerClusEx	109		/* exFAT: Log2 of cluster size in unit of sector (BYTE) */
 132:..\..\FatFS-master\source/ff.c **** #define BPB_NumFATsEx		110		/* exFAT: Number of FATs (BYTE) */
 133:..\..\FatFS-master\source/ff.c **** #define BPB_DrvNumEx		111		/* exFAT: Physical drive number for int13h (BYTE) */
 134:..\..\FatFS-master\source/ff.c **** #define BPB_PercInUseEx		112		/* exFAT: Percent in use (BYTE) */
 135:..\..\FatFS-master\source/ff.c **** #define BPB_RsvdEx			113		/* exFAT: Reserved (7-byte) */
 136:..\..\FatFS-master\source/ff.c **** #define BS_BootCodeEx		120		/* exFAT: Boot code (390-byte) */
 137:..\..\FatFS-master\source/ff.c **** 
 138:..\..\FatFS-master\source/ff.c **** #define DIR_Name			0		/* Short file name (11-byte) */
 139:..\..\FatFS-master\source/ff.c **** #define DIR_Attr			11		/* Attribute (BYTE) */
 140:..\..\FatFS-master\source/ff.c **** #define DIR_NTres			12		/* Lower case flag (BYTE) */
 141:..\..\FatFS-master\source/ff.c **** #define DIR_CrtTime10		13		/* Created time sub-second (BYTE) */
 142:..\..\FatFS-master\source/ff.c **** #define DIR_CrtTime			14		/* Created time (DWORD) */
 143:..\..\FatFS-master\source/ff.c **** #define DIR_LstAccDate		18		/* Last accessed date (WORD) */
 144:..\..\FatFS-master\source/ff.c **** #define DIR_FstClusHI		20		/* Higher 16-bit of first cluster (WORD) */
 145:..\..\FatFS-master\source/ff.c **** #define DIR_ModTime			22		/* Modified time (DWORD) */
ARM GAS  C:\Users\NUSAIR~1\AppData\Local\Temp\ccFqg92r.s 			page 4


 146:..\..\FatFS-master\source/ff.c **** #define DIR_FstClusLO		26		/* Lower 16-bit of first cluster (WORD) */
 147:..\..\FatFS-master\source/ff.c **** #define DIR_FileSize		28		/* File size (DWORD) */
 148:..\..\FatFS-master\source/ff.c **** #define LDIR_Ord			0		/* LFN: LFN order and LLE flag (BYTE) */
 149:..\..\FatFS-master\source/ff.c **** #define LDIR_Attr			11		/* LFN: LFN attribute (BYTE) */
 150:..\..\FatFS-master\source/ff.c **** #define LDIR_Type			12		/* LFN: Entry type (BYTE) */
 151:..\..\FatFS-master\source/ff.c **** #define LDIR_Chksum			13		/* LFN: Checksum of the SFN (BYTE) */
 152:..\..\FatFS-master\source/ff.c **** #define LDIR_FstClusLO		26		/* LFN: MBZ field (WORD) */
 153:..\..\FatFS-master\source/ff.c **** #define XDIR_Type			0		/* exFAT: Type of exFAT directory entry (BYTE) */
 154:..\..\FatFS-master\source/ff.c **** #define XDIR_NumLabel		1		/* exFAT: Number of volume label characters (BYTE) */
 155:..\..\FatFS-master\source/ff.c **** #define XDIR_Label			2		/* exFAT: Volume label (11-WORD) */
 156:..\..\FatFS-master\source/ff.c **** #define XDIR_CaseSum		4		/* exFAT: Sum of case conversion table (DWORD) */
 157:..\..\FatFS-master\source/ff.c **** #define XDIR_NumSec			1		/* exFAT: Number of secondary entries (BYTE) */
 158:..\..\FatFS-master\source/ff.c **** #define XDIR_SetSum			2		/* exFAT: Sum of the set of directory entries (WORD) */
 159:..\..\FatFS-master\source/ff.c **** #define XDIR_Attr			4		/* exFAT: File attribute (WORD) */
 160:..\..\FatFS-master\source/ff.c **** #define XDIR_CrtTime		8		/* exFAT: Created time (DWORD) */
 161:..\..\FatFS-master\source/ff.c **** #define XDIR_ModTime		12		/* exFAT: Modified time (DWORD) */
 162:..\..\FatFS-master\source/ff.c **** #define XDIR_AccTime		16		/* exFAT: Last accessed time (DWORD) */
 163:..\..\FatFS-master\source/ff.c **** #define XDIR_CrtTime10		20		/* exFAT: Created time subsecond (BYTE) */
 164:..\..\FatFS-master\source/ff.c **** #define XDIR_ModTime10		21		/* exFAT: Modified time subsecond (BYTE) */
 165:..\..\FatFS-master\source/ff.c **** #define XDIR_CrtTZ			22		/* exFAT: Created timezone (BYTE) */
 166:..\..\FatFS-master\source/ff.c **** #define XDIR_ModTZ			23		/* exFAT: Modified timezone (BYTE) */
 167:..\..\FatFS-master\source/ff.c **** #define XDIR_AccTZ			24		/* exFAT: Last accessed timezone (BYTE) */
 168:..\..\FatFS-master\source/ff.c **** #define XDIR_GenFlags		33		/* exFAT: General secondary flags (BYTE) */
 169:..\..\FatFS-master\source/ff.c **** #define XDIR_NumName		35		/* exFAT: Number of file name characters (BYTE) */
 170:..\..\FatFS-master\source/ff.c **** #define XDIR_NameHash		36		/* exFAT: Hash of file name (WORD) */
 171:..\..\FatFS-master\source/ff.c **** #define XDIR_ValidFileSize	40		/* exFAT: Valid file size (QWORD) */
 172:..\..\FatFS-master\source/ff.c **** #define XDIR_FstClus		52		/* exFAT: First cluster of the file data (DWORD) */
 173:..\..\FatFS-master\source/ff.c **** #define XDIR_FileSize		56		/* exFAT: File/Directory size (QWORD) */
 174:..\..\FatFS-master\source/ff.c **** 
 175:..\..\FatFS-master\source/ff.c **** #define SZDIRE				32		/* Size of a directory entry */
 176:..\..\FatFS-master\source/ff.c **** #define DDEM				0xE5	/* Deleted directory entry mark set to DIR_Name[0] */
 177:..\..\FatFS-master\source/ff.c **** #define RDDEM				0x05	/* Replacement of the character collides with DDEM */
 178:..\..\FatFS-master\source/ff.c **** #define LLEF				0x40	/* Last long entry flag in LDIR_Ord */
 179:..\..\FatFS-master\source/ff.c **** 
 180:..\..\FatFS-master\source/ff.c **** #define FSI_LeadSig			0		/* FAT32 FSI: Leading signature (DWORD) */
 181:..\..\FatFS-master\source/ff.c **** #define FSI_StrucSig		484		/* FAT32 FSI: Structure signature (DWORD) */
 182:..\..\FatFS-master\source/ff.c **** #define FSI_Free_Count		488		/* FAT32 FSI: Number of free clusters (DWORD) */
 183:..\..\FatFS-master\source/ff.c **** #define FSI_Nxt_Free		492		/* FAT32 FSI: Last allocated cluster (DWORD) */
 184:..\..\FatFS-master\source/ff.c **** 
 185:..\..\FatFS-master\source/ff.c **** #define MBR_Table			446		/* MBR: Offset of partition table in the MBR */
 186:..\..\FatFS-master\source/ff.c **** #define SZ_PTE				16		/* MBR: Size of a partition table entry */
 187:..\..\FatFS-master\source/ff.c **** #define PTE_Boot			0		/* MBR PTE: Boot indicator */
 188:..\..\FatFS-master\source/ff.c **** #define PTE_StHead			1		/* MBR PTE: Start head */
 189:..\..\FatFS-master\source/ff.c **** #define PTE_StSec			2		/* MBR PTE: Start sector */
 190:..\..\FatFS-master\source/ff.c **** #define PTE_StCyl			3		/* MBR PTE: Start cylinder */
 191:..\..\FatFS-master\source/ff.c **** #define PTE_System			4		/* MBR PTE: System ID */
 192:..\..\FatFS-master\source/ff.c **** #define PTE_EdHead			5		/* MBR PTE: End head */
 193:..\..\FatFS-master\source/ff.c **** #define PTE_EdSec			6		/* MBR PTE: End sector */
 194:..\..\FatFS-master\source/ff.c **** #define PTE_EdCyl			7		/* MBR PTE: End cylinder */
 195:..\..\FatFS-master\source/ff.c **** #define PTE_StLba			8		/* MBR PTE: Start in LBA */
 196:..\..\FatFS-master\source/ff.c **** #define PTE_SizLba			12		/* MBR PTE: Size in LBA */
 197:..\..\FatFS-master\source/ff.c **** 
 198:..\..\FatFS-master\source/ff.c **** 
 199:..\..\FatFS-master\source/ff.c **** /* Post process on fatal error in the file operations */
 200:..\..\FatFS-master\source/ff.c **** #define ABORT(fs, res)		{ fp->err = (BYTE)(res); LEAVE_FF(fs, res); }
 201:..\..\FatFS-master\source/ff.c **** 
 202:..\..\FatFS-master\source/ff.c **** 
ARM GAS  C:\Users\NUSAIR~1\AppData\Local\Temp\ccFqg92r.s 			page 5


 203:..\..\FatFS-master\source/ff.c **** /* Re-entrancy related */
 204:..\..\FatFS-master\source/ff.c **** #if FF_FS_REENTRANT
 205:..\..\FatFS-master\source/ff.c **** #if FF_USE_LFN == 1
 206:..\..\FatFS-master\source/ff.c **** #error Static LFN work area cannot be used at thread-safe configuration
 207:..\..\FatFS-master\source/ff.c **** #endif
 208:..\..\FatFS-master\source/ff.c **** #define LEAVE_FF(fs, res)	{ unlock_fs(fs, res); return res; }
 209:..\..\FatFS-master\source/ff.c **** #else
 210:..\..\FatFS-master\source/ff.c **** #define LEAVE_FF(fs, res)	return res
 211:..\..\FatFS-master\source/ff.c **** #endif
 212:..\..\FatFS-master\source/ff.c **** 
 213:..\..\FatFS-master\source/ff.c **** 
 214:..\..\FatFS-master\source/ff.c **** /* Definitions of volume - physical location conversion */
 215:..\..\FatFS-master\source/ff.c **** #if FF_MULTI_PARTITION
 216:..\..\FatFS-master\source/ff.c **** #define LD2PD(vol) VolToPart[vol].pd	/* Get physical drive number */
 217:..\..\FatFS-master\source/ff.c **** #define LD2PT(vol) VolToPart[vol].pt	/* Get partition index */
 218:..\..\FatFS-master\source/ff.c **** #else
 219:..\..\FatFS-master\source/ff.c **** #define LD2PD(vol) (BYTE)(vol)	/* Each logical drive is bound to the same physical drive number */
 220:..\..\FatFS-master\source/ff.c **** #define LD2PT(vol) 0			/* Find first valid partition or in SFD */
 221:..\..\FatFS-master\source/ff.c **** #endif
 222:..\..\FatFS-master\source/ff.c **** 
 223:..\..\FatFS-master\source/ff.c **** 
 224:..\..\FatFS-master\source/ff.c **** /* Definitions of sector size */
 225:..\..\FatFS-master\source/ff.c **** #if (FF_MAX_SS < FF_MIN_SS) || (FF_MAX_SS != 512 && FF_MAX_SS != 1024 && FF_MAX_SS != 2048 && FF_MA
 226:..\..\FatFS-master\source/ff.c **** #error Wrong sector size configuration
 227:..\..\FatFS-master\source/ff.c **** #endif
 228:..\..\FatFS-master\source/ff.c **** #if FF_MAX_SS == FF_MIN_SS
 229:..\..\FatFS-master\source/ff.c **** #define SS(fs)	((UINT)FF_MAX_SS)	/* Fixed sector size */
 230:..\..\FatFS-master\source/ff.c **** #else
 231:..\..\FatFS-master\source/ff.c **** #define SS(fs)	((fs)->ssize)	/* Variable sector size */
 232:..\..\FatFS-master\source/ff.c **** #endif
 233:..\..\FatFS-master\source/ff.c **** 
 234:..\..\FatFS-master\source/ff.c **** 
 235:..\..\FatFS-master\source/ff.c **** /* Timestamp */
 236:..\..\FatFS-master\source/ff.c **** #if FF_FS_NORTC == 1
 237:..\..\FatFS-master\source/ff.c **** #if FF_NORTC_YEAR < 1980 || FF_NORTC_YEAR > 2107 || FF_NORTC_MON < 1 || FF_NORTC_MON > 12 || FF_NOR
 238:..\..\FatFS-master\source/ff.c **** #error Invalid FF_FS_NORTC settings
 239:..\..\FatFS-master\source/ff.c **** #endif
 240:..\..\FatFS-master\source/ff.c **** #define GET_FATTIME()	((DWORD)(FF_NORTC_YEAR - 1980) << 25 | (DWORD)FF_NORTC_MON << 21 | (DWORD)FF_
 241:..\..\FatFS-master\source/ff.c **** #else
 242:..\..\FatFS-master\source/ff.c **** #define GET_FATTIME()	get_fattime()
 243:..\..\FatFS-master\source/ff.c **** #endif
 244:..\..\FatFS-master\source/ff.c **** 
 245:..\..\FatFS-master\source/ff.c **** 
 246:..\..\FatFS-master\source/ff.c **** /* File lock controls */
 247:..\..\FatFS-master\source/ff.c **** #if FF_FS_LOCK != 0
 248:..\..\FatFS-master\source/ff.c **** #if FF_FS_READONLY
 249:..\..\FatFS-master\source/ff.c **** #error FF_FS_LOCK must be 0 at read-only configuration
 250:..\..\FatFS-master\source/ff.c **** #endif
 251:..\..\FatFS-master\source/ff.c **** typedef struct {
 252:..\..\FatFS-master\source/ff.c **** 	FATFS *fs;		/* Object ID 1, volume (NULL:blank entry) */
 253:..\..\FatFS-master\source/ff.c **** 	DWORD clu;		/* Object ID 2, containing directory (0:root) */
 254:..\..\FatFS-master\source/ff.c **** 	DWORD ofs;		/* Object ID 3, offset in the directory */
 255:..\..\FatFS-master\source/ff.c **** 	WORD ctr;		/* Object open counter, 0:none, 0x01..0xFF:read mode open count, 0x100:write mode */
 256:..\..\FatFS-master\source/ff.c **** } FILESEM;
 257:..\..\FatFS-master\source/ff.c **** #endif
 258:..\..\FatFS-master\source/ff.c **** 
 259:..\..\FatFS-master\source/ff.c **** 
ARM GAS  C:\Users\NUSAIR~1\AppData\Local\Temp\ccFqg92r.s 			page 6


 260:..\..\FatFS-master\source/ff.c **** /* SBCS up-case tables (\x80-\xFF) */
 261:..\..\FatFS-master\source/ff.c **** #define TBL_CT437  {0x80,0x9A,0x45,0x41,0x8E,0x41,0x8F,0x80,0x45,0x45,0x45,0x49,0x49,0x49,0x8E,0x8F
 262:..\..\FatFS-master\source/ff.c **** 					0x90,0x92,0x92,0x4F,0x99,0x4F,0x55,0x55,0x59,0x99,0x9A,0x9B,0x9C,0x9D,0x9E,0x9F, \
 263:..\..\FatFS-master\source/ff.c **** 					0x41,0x49,0x4F,0x55,0xA5,0xA5,0xA6,0xA7,0xA8,0xA9,0xAA,0xAB,0xAC,0xAD,0xAE,0xAF, \
 264:..\..\FatFS-master\source/ff.c **** 					0xB0,0xB1,0xB2,0xB3,0xB4,0xB5,0xB6,0xB7,0xB8,0xB9,0xBA,0xBB,0xBC,0xBD,0xBE,0xBF, \
 265:..\..\FatFS-master\source/ff.c **** 					0xC0,0xC1,0xC2,0xC3,0xC4,0xC5,0xC6,0xC7,0xC8,0xC9,0xCA,0xCB,0xCC,0xCD,0xCE,0xCF, \
 266:..\..\FatFS-master\source/ff.c **** 					0xD0,0xD1,0xD2,0xD3,0xD4,0xD5,0xD6,0xD7,0xD8,0xD9,0xDA,0xDB,0xDC,0xDD,0xDE,0xDF, \
 267:..\..\FatFS-master\source/ff.c **** 					0xE0,0xE1,0xE2,0xE3,0xE4,0xE5,0xE6,0xE7,0xE8,0xE9,0xEA,0xEB,0xEC,0xED,0xEE,0xEF, \
 268:..\..\FatFS-master\source/ff.c **** 					0xF0,0xF1,0xF2,0xF3,0xF4,0xF5,0xF6,0xF7,0xF8,0xF9,0xFA,0xFB,0xFC,0xFD,0xFE,0xFF}
 269:..\..\FatFS-master\source/ff.c **** #define TBL_CT720  {0x80,0x81,0x82,0x83,0x84,0x85,0x86,0x87,0x88,0x89,0x8A,0x8B,0x8C,0x8D,0x8E,0x8F
 270:..\..\FatFS-master\source/ff.c **** 					0x90,0x91,0x92,0x93,0x94,0x95,0x96,0x97,0x98,0x99,0x9A,0x9B,0x9C,0x9D,0x9E,0x9F, \
 271:..\..\FatFS-master\source/ff.c **** 					0xA0,0xA1,0xA2,0xA3,0xA4,0xA5,0xA6,0xA7,0xA8,0xA9,0xAA,0xAB,0xAC,0xAD,0xAE,0xAF, \
 272:..\..\FatFS-master\source/ff.c **** 					0xB0,0xB1,0xB2,0xB3,0xB4,0xB5,0xB6,0xB7,0xB8,0xB9,0xBA,0xBB,0xBC,0xBD,0xBE,0xBF, \
 273:..\..\FatFS-master\source/ff.c **** 					0xC0,0xC1,0xC2,0xC3,0xC4,0xC5,0xC6,0xC7,0xC8,0xC9,0xCA,0xCB,0xCC,0xCD,0xCE,0xCF, \
 274:..\..\FatFS-master\source/ff.c **** 					0xD0,0xD1,0xD2,0xD3,0xD4,0xD5,0xD6,0xD7,0xD8,0xD9,0xDA,0xDB,0xDC,0xDD,0xDE,0xDF, \
 275:..\..\FatFS-master\source/ff.c **** 					0xE0,0xE1,0xE2,0xE3,0xE4,0xE5,0xE6,0xE7,0xE8,0xE9,0xEA,0xEB,0xEC,0xED,0xEE,0xEF, \
 276:..\..\FatFS-master\source/ff.c **** 					0xF0,0xF1,0xF2,0xF3,0xF4,0xF5,0xF6,0xF7,0xF8,0xF9,0xFA,0xFB,0xFC,0xFD,0xFE,0xFF}
 277:..\..\FatFS-master\source/ff.c **** #define TBL_CT737  {0x80,0x81,0x82,0x83,0x84,0x85,0x86,0x87,0x88,0x89,0x8A,0x8B,0x8C,0x8D,0x8E,0x8F
 278:..\..\FatFS-master\source/ff.c **** 					0x90,0x92,0x92,0x93,0x94,0x95,0x96,0x97,0x80,0x81,0x82,0x83,0x84,0x85,0x86,0x87, \
 279:..\..\FatFS-master\source/ff.c **** 					0x88,0x89,0x8A,0x8B,0x8C,0x8D,0x8E,0x8F,0x90,0x91,0xAA,0x92,0x93,0x94,0x95,0x96, \
 280:..\..\FatFS-master\source/ff.c **** 					0xB0,0xB1,0xB2,0xB3,0xB4,0xB5,0xB6,0xB7,0xB8,0xB9,0xBA,0xBB,0xBC,0xBD,0xBE,0xBF, \
 281:..\..\FatFS-master\source/ff.c **** 					0xC0,0xC1,0xC2,0xC3,0xC4,0xC5,0xC6,0xC7,0xC8,0xC9,0xCA,0xCB,0xCC,0xCD,0xCE,0xCF, \
 282:..\..\FatFS-master\source/ff.c **** 					0xD0,0xD1,0xD2,0xD3,0xD4,0xD5,0xD6,0xD7,0xD8,0xD9,0xDA,0xDB,0xDC,0xDD,0xDE,0xDF, \
 283:..\..\FatFS-master\source/ff.c **** 					0x97,0xEA,0xEB,0xEC,0xE4,0xED,0xEE,0xEF,0xF5,0xF0,0xEA,0xEB,0xEC,0xED,0xEE,0xEF, \
 284:..\..\FatFS-master\source/ff.c **** 					0xF0,0xF1,0xF2,0xF3,0xF4,0xF5,0xF6,0xF7,0xF8,0xF9,0xFA,0xFB,0xFC,0xFD,0xFE,0xFF}
 285:..\..\FatFS-master\source/ff.c **** #define TBL_CT771  {0x80,0x81,0x82,0x83,0x84,0x85,0x86,0x87,0x88,0x89,0x8A,0x8B,0x8C,0x8D,0x8E,0x8F
 286:..\..\FatFS-master\source/ff.c **** 					0x90,0x91,0x92,0x93,0x94,0x95,0x96,0x97,0x98,0x99,0x9A,0x9B,0x9C,0x9D,0x9E,0x9F, \
 287:..\..\FatFS-master\source/ff.c **** 					0x80,0x81,0x82,0x83,0x84,0x85,0x86,0x87,0x88,0x89,0x8A,0x8B,0x8C,0x8D,0x8E,0x8F, \
 288:..\..\FatFS-master\source/ff.c **** 					0xB0,0xB1,0xB2,0xB3,0xB4,0xB5,0xB6,0xB7,0xB8,0xB9,0xBA,0xBB,0xBC,0xBD,0xBE,0xBF, \
 289:..\..\FatFS-master\source/ff.c **** 					0xC0,0xC1,0xC2,0xC3,0xC4,0xC5,0xC6,0xC7,0xC8,0xC9,0xCA,0xCB,0xCC,0xCD,0xCE,0xCF, \
 290:..\..\FatFS-master\source/ff.c **** 					0xD0,0xD1,0xD2,0xD3,0xD4,0xD5,0xD6,0xD7,0xD8,0xD9,0xDA,0xDB,0xDC,0xDC,0xDE,0xDE, \
 291:..\..\FatFS-master\source/ff.c **** 					0x90,0x91,0x92,0x93,0x94,0x95,0x96,0x97,0x98,0x99,0x9A,0x9B,0x9C,0x9D,0x9E,0x9F, \
 292:..\..\FatFS-master\source/ff.c **** 					0xF0,0xF0,0xF2,0xF2,0xF4,0xF4,0xF6,0xF6,0xF8,0xF8,0xFA,0xFA,0xFC,0xFC,0xFE,0xFF}
 293:..\..\FatFS-master\source/ff.c **** #define TBL_CT775  {0x80,0x9A,0x91,0xA0,0x8E,0x95,0x8F,0x80,0xAD,0xED,0x8A,0x8A,0xA1,0x8D,0x8E,0x8F
 294:..\..\FatFS-master\source/ff.c **** 					0x90,0x92,0x92,0xE2,0x99,0x95,0x96,0x97,0x97,0x99,0x9A,0x9D,0x9C,0x9D,0x9E,0x9F, \
 295:..\..\FatFS-master\source/ff.c **** 					0xA0,0xA1,0xE0,0xA3,0xA3,0xA5,0xA6,0xA7,0xA8,0xA9,0xAA,0xAB,0xAC,0xAD,0xAE,0xAF, \
 296:..\..\FatFS-master\source/ff.c **** 					0xB0,0xB1,0xB2,0xB3,0xB4,0xB5,0xB6,0xB7,0xB8,0xB9,0xBA,0xBB,0xBC,0xBD,0xBE,0xBF, \
 297:..\..\FatFS-master\source/ff.c **** 					0xC0,0xC1,0xC2,0xC3,0xC4,0xC5,0xC6,0xC7,0xC8,0xC9,0xCA,0xCB,0xCC,0xCD,0xCE,0xCF, \
 298:..\..\FatFS-master\source/ff.c **** 					0xB5,0xB6,0xB7,0xB8,0xBD,0xBE,0xC6,0xC7,0xA5,0xD9,0xDA,0xDB,0xDC,0xDD,0xDE,0xDF, \
 299:..\..\FatFS-master\source/ff.c **** 					0xE0,0xE1,0xE2,0xE3,0xE5,0xE5,0xE6,0xE3,0xE8,0xE8,0xEA,0xEA,0xEE,0xED,0xEE,0xEF, \
 300:..\..\FatFS-master\source/ff.c **** 					0xF0,0xF1,0xF2,0xF3,0xF4,0xF5,0xF6,0xF7,0xF8,0xF9,0xFA,0xFB,0xFC,0xFD,0xFE,0xFF}
 301:..\..\FatFS-master\source/ff.c **** #define TBL_CT850  {0x43,0x55,0x45,0x41,0x41,0x41,0x41,0x43,0x45,0x45,0x45,0x49,0x49,0x49,0x41,0x41
 302:..\..\FatFS-master\source/ff.c **** 					0x45,0x92,0x92,0x4F,0x4F,0x4F,0x55,0x55,0x59,0x4F,0x55,0x4F,0x9C,0x4F,0x9E,0x9F, \
 303:..\..\FatFS-master\source/ff.c **** 					0x41,0x49,0x4F,0x55,0xA5,0xA5,0xA6,0xA7,0xA8,0xA9,0xAA,0xAB,0xAC,0xAD,0xAE,0xAF, \
 304:..\..\FatFS-master\source/ff.c **** 					0xB0,0xB1,0xB2,0xB3,0xB4,0x41,0x41,0x41,0xB8,0xB9,0xBA,0xBB,0xBC,0xBD,0xBE,0xBF, \
 305:..\..\FatFS-master\source/ff.c **** 					0xC0,0xC1,0xC2,0xC3,0xC4,0xC5,0x41,0x41,0xC8,0xC9,0xCA,0xCB,0xCC,0xCD,0xCE,0xCF, \
 306:..\..\FatFS-master\source/ff.c **** 					0xD1,0xD1,0x45,0x45,0x45,0x49,0x49,0x49,0x49,0xD9,0xDA,0xDB,0xDC,0xDD,0x49,0xDF, \
 307:..\..\FatFS-master\source/ff.c **** 					0x4F,0xE1,0x4F,0x4F,0x4F,0x4F,0xE6,0xE8,0xE8,0x55,0x55,0x55,0x59,0x59,0xEE,0xEF, \
 308:..\..\FatFS-master\source/ff.c **** 					0xF0,0xF1,0xF2,0xF3,0xF4,0xF5,0xF6,0xF7,0xF8,0xF9,0xFA,0xFB,0xFC,0xFD,0xFE,0xFF}
 309:..\..\FatFS-master\source/ff.c **** #define TBL_CT852  {0x80,0x9A,0x90,0xB6,0x8E,0xDE,0x8F,0x80,0x9D,0xD3,0x8A,0x8A,0xD7,0x8D,0x8E,0x8F
 310:..\..\FatFS-master\source/ff.c **** 					0x90,0x91,0x91,0xE2,0x99,0x95,0x95,0x97,0x97,0x99,0x9A,0x9B,0x9B,0x9D,0x9E,0xAC, \
 311:..\..\FatFS-master\source/ff.c **** 					0xB5,0xD6,0xE0,0xE9,0xA4,0xA4,0xA6,0xA6,0xA8,0xA8,0xAA,0x8D,0xAC,0xB8,0xAE,0xAF, \
 312:..\..\FatFS-master\source/ff.c **** 					0xB0,0xB1,0xB2,0xB3,0xB4,0xB5,0xB6,0xB7,0xB8,0xB9,0xBA,0xBB,0xBC,0xBD,0xBD,0xBF, \
 313:..\..\FatFS-master\source/ff.c **** 					0xC0,0xC1,0xC2,0xC3,0xC4,0xC5,0xC6,0xC6,0xC8,0xC9,0xCA,0xCB,0xCC,0xCD,0xCE,0xCF, \
 314:..\..\FatFS-master\source/ff.c **** 					0xD1,0xD1,0xD2,0xD3,0xD2,0xD5,0xD6,0xD7,0xB7,0xD9,0xDA,0xDB,0xDC,0xDD,0xDE,0xDF, \
 315:..\..\FatFS-master\source/ff.c **** 					0xE0,0xE1,0xE2,0xE3,0xE3,0xD5,0xE6,0xE6,0xE8,0xE9,0xE8,0xEB,0xED,0xED,0xDD,0xEF, \
 316:..\..\FatFS-master\source/ff.c **** 					0xF0,0xF1,0xF2,0xF3,0xF4,0xF5,0xF6,0xF7,0xF8,0xF9,0xFA,0xEB,0xFC,0xFC,0xFE,0xFF}
ARM GAS  C:\Users\NUSAIR~1\AppData\Local\Temp\ccFqg92r.s 			page 7


 317:..\..\FatFS-master\source/ff.c **** #define TBL_CT855  {0x81,0x81,0x83,0x83,0x85,0x85,0x87,0x87,0x89,0x89,0x8B,0x8B,0x8D,0x8D,0x8F,0x8F
 318:..\..\FatFS-master\source/ff.c **** 					0x91,0x91,0x93,0x93,0x95,0x95,0x97,0x97,0x99,0x99,0x9B,0x9B,0x9D,0x9D,0x9F,0x9F, \
 319:..\..\FatFS-master\source/ff.c **** 					0xA1,0xA1,0xA3,0xA3,0xA5,0xA5,0xA7,0xA7,0xA9,0xA9,0xAB,0xAB,0xAD,0xAD,0xAE,0xAF, \
 320:..\..\FatFS-master\source/ff.c **** 					0xB0,0xB1,0xB2,0xB3,0xB4,0xB6,0xB6,0xB8,0xB8,0xB9,0xBA,0xBB,0xBC,0xBE,0xBE,0xBF, \
 321:..\..\FatFS-master\source/ff.c **** 					0xC0,0xC1,0xC2,0xC3,0xC4,0xC5,0xC7,0xC7,0xC8,0xC9,0xCA,0xCB,0xCC,0xCD,0xCE,0xCF, \
 322:..\..\FatFS-master\source/ff.c **** 					0xD1,0xD1,0xD3,0xD3,0xD5,0xD5,0xD7,0xD7,0xDD,0xD9,0xDA,0xDB,0xDC,0xDD,0xE0,0xDF, \
 323:..\..\FatFS-master\source/ff.c **** 					0xE0,0xE2,0xE2,0xE4,0xE4,0xE6,0xE6,0xE8,0xE8,0xEA,0xEA,0xEC,0xEC,0xEE,0xEE,0xEF, \
 324:..\..\FatFS-master\source/ff.c **** 					0xF0,0xF2,0xF2,0xF4,0xF4,0xF6,0xF6,0xF8,0xF8,0xFA,0xFA,0xFC,0xFC,0xFD,0xFE,0xFF}
 325:..\..\FatFS-master\source/ff.c **** #define TBL_CT857  {0x80,0x9A,0x90,0xB6,0x8E,0xB7,0x8F,0x80,0xD2,0xD3,0xD4,0xD8,0xD7,0x49,0x8E,0x8F
 326:..\..\FatFS-master\source/ff.c **** 					0x90,0x92,0x92,0xE2,0x99,0xE3,0xEA,0xEB,0x98,0x99,0x9A,0x9D,0x9C,0x9D,0x9E,0x9E, \
 327:..\..\FatFS-master\source/ff.c **** 					0xB5,0xD6,0xE0,0xE9,0xA5,0xA5,0xA6,0xA6,0xA8,0xA9,0xAA,0xAB,0xAC,0xAD,0xAE,0xAF, \
 328:..\..\FatFS-master\source/ff.c **** 					0xB0,0xB1,0xB2,0xB3,0xB4,0xB5,0xB6,0xB7,0xB8,0xB9,0xBA,0xBB,0xBC,0xBD,0xBE,0xBF, \
 329:..\..\FatFS-master\source/ff.c **** 					0xC0,0xC1,0xC2,0xC3,0xC4,0xC5,0xC7,0xC7,0xC8,0xC9,0xCA,0xCB,0xCC,0xCD,0xCE,0xCF, \
 330:..\..\FatFS-master\source/ff.c **** 					0xD0,0xD1,0xD2,0xD3,0xD4,0x49,0xD6,0xD7,0xD8,0xD9,0xDA,0xDB,0xDC,0xDD,0xDE,0xDF, \
 331:..\..\FatFS-master\source/ff.c **** 					0xE0,0xE1,0xE2,0xE3,0xE5,0xE5,0xE6,0xE7,0xE8,0xE9,0xEA,0xEB,0xDE,0xED,0xEE,0xEF, \
 332:..\..\FatFS-master\source/ff.c **** 					0xF0,0xF1,0xF2,0xF3,0xF4,0xF5,0xF6,0xF7,0xF8,0xF9,0xFA,0xFB,0xFC,0xFD,0xFE,0xFF}
 333:..\..\FatFS-master\source/ff.c **** #define TBL_CT860  {0x80,0x9A,0x90,0x8F,0x8E,0x91,0x86,0x80,0x89,0x89,0x92,0x8B,0x8C,0x98,0x8E,0x8F
 334:..\..\FatFS-master\source/ff.c **** 					0x90,0x91,0x92,0x8C,0x99,0xA9,0x96,0x9D,0x98,0x99,0x9A,0x9B,0x9C,0x9D,0x9E,0x9F, \
 335:..\..\FatFS-master\source/ff.c **** 					0x86,0x8B,0x9F,0x96,0xA5,0xA5,0xA6,0xA7,0xA8,0xA9,0xAA,0xAB,0xAC,0xAD,0xAE,0xAF, \
 336:..\..\FatFS-master\source/ff.c **** 					0xB0,0xB1,0xB2,0xB3,0xB4,0xB5,0xB6,0xB7,0xB8,0xB9,0xBA,0xBB,0xBC,0xBD,0xBE,0xBF, \
 337:..\..\FatFS-master\source/ff.c **** 					0xC0,0xC1,0xC2,0xC3,0xC4,0xC5,0xC6,0xC7,0xC8,0xC9,0xCA,0xCB,0xCC,0xCD,0xCE,0xCF, \
 338:..\..\FatFS-master\source/ff.c **** 					0xD0,0xD1,0xD2,0xD3,0xD4,0xD5,0xD6,0xD7,0xD8,0xD9,0xDA,0xDB,0xDC,0xDD,0xDE,0xDF, \
 339:..\..\FatFS-master\source/ff.c **** 					0xE0,0xE1,0xE2,0xE3,0xE4,0xE5,0xE6,0xE7,0xE8,0xE9,0xEA,0xEB,0xEC,0xED,0xEE,0xEF, \
 340:..\..\FatFS-master\source/ff.c **** 					0xF0,0xF1,0xF2,0xF3,0xF4,0xF5,0xF6,0xF7,0xF8,0xF9,0xFA,0xFB,0xFC,0xFD,0xFE,0xFF}
 341:..\..\FatFS-master\source/ff.c **** #define TBL_CT861  {0x80,0x9A,0x90,0x41,0x8E,0x41,0x8F,0x80,0x45,0x45,0x45,0x8B,0x8B,0x8D,0x8E,0x8F
 342:..\..\FatFS-master\source/ff.c **** 					0x90,0x92,0x92,0x4F,0x99,0x8D,0x55,0x97,0x97,0x99,0x9A,0x9D,0x9C,0x9D,0x9E,0x9F, \
 343:..\..\FatFS-master\source/ff.c **** 					0xA4,0xA5,0xA6,0xA7,0xA4,0xA5,0xA6,0xA7,0xA8,0xA9,0xAA,0xAB,0xAC,0xAD,0xAE,0xAF, \
 344:..\..\FatFS-master\source/ff.c **** 					0xB0,0xB1,0xB2,0xB3,0xB4,0xB5,0xB6,0xB7,0xB8,0xB9,0xBA,0xBB,0xBC,0xBD,0xBE,0xBF, \
 345:..\..\FatFS-master\source/ff.c **** 					0xC0,0xC1,0xC2,0xC3,0xC4,0xC5,0xC6,0xC7,0xC8,0xC9,0xCA,0xCB,0xCC,0xCD,0xCE,0xCF, \
 346:..\..\FatFS-master\source/ff.c **** 					0xD0,0xD1,0xD2,0xD3,0xD4,0xD5,0xD6,0xD7,0xD8,0xD9,0xDA,0xDB,0xDC,0xDD,0xDE,0xDF, \
 347:..\..\FatFS-master\source/ff.c **** 					0xE0,0xE1,0xE2,0xE3,0xE4,0xE5,0xE6,0xE7,0xE8,0xE9,0xEA,0xEB,0xEC,0xED,0xEE,0xEF, \
 348:..\..\FatFS-master\source/ff.c **** 					0xF0,0xF1,0xF2,0xF3,0xF4,0xF5,0xF6,0xF7,0xF8,0xF9,0xFA,0xFB,0xFC,0xFD,0xFE,0xFF}
 349:..\..\FatFS-master\source/ff.c **** #define TBL_CT862  {0x80,0x81,0x82,0x83,0x84,0x85,0x86,0x87,0x88,0x89,0x8A,0x8B,0x8C,0x8D,0x8E,0x8F
 350:..\..\FatFS-master\source/ff.c **** 					0x90,0x91,0x92,0x93,0x94,0x95,0x96,0x97,0x98,0x99,0x9A,0x9B,0x9C,0x9D,0x9E,0x9F, \
 351:..\..\FatFS-master\source/ff.c **** 					0x41,0x49,0x4F,0x55,0xA5,0xA5,0xA6,0xA7,0xA8,0xA9,0xAA,0xAB,0xAC,0xAD,0xAE,0xAF, \
 352:..\..\FatFS-master\source/ff.c **** 					0xB0,0xB1,0xB2,0xB3,0xB4,0xB5,0xB6,0xB7,0xB8,0xB9,0xBA,0xBB,0xBC,0xBD,0xBE,0xBF, \
 353:..\..\FatFS-master\source/ff.c **** 					0xC0,0xC1,0xC2,0xC3,0xC4,0xC5,0xC6,0xC7,0xC8,0xC9,0xCA,0xCB,0xCC,0xCD,0xCE,0xCF, \
 354:..\..\FatFS-master\source/ff.c **** 					0xD0,0xD1,0xD2,0xD3,0xD4,0xD5,0xD6,0xD7,0xD8,0xD9,0xDA,0xDB,0xDC,0xDD,0xDE,0xDF, \
 355:..\..\FatFS-master\source/ff.c **** 					0xE0,0xE1,0xE2,0xE3,0xE4,0xE5,0xE6,0xE7,0xE8,0xE9,0xEA,0xEB,0xEC,0xED,0xEE,0xEF, \
 356:..\..\FatFS-master\source/ff.c **** 					0xF0,0xF1,0xF2,0xF3,0xF4,0xF5,0xF6,0xF7,0xF8,0xF9,0xFA,0xFB,0xFC,0xFD,0xFE,0xFF}
 357:..\..\FatFS-master\source/ff.c **** #define TBL_CT863  {0x43,0x55,0x45,0x41,0x41,0x41,0x86,0x43,0x45,0x45,0x45,0x49,0x49,0x8D,0x41,0x8F
 358:..\..\FatFS-master\source/ff.c **** 					0x45,0x45,0x45,0x4F,0x45,0x49,0x55,0x55,0x98,0x4F,0x55,0x9B,0x9C,0x55,0x55,0x9F, \
 359:..\..\FatFS-master\source/ff.c **** 					0xA0,0xA1,0x4F,0x55,0xA4,0xA5,0xA6,0xA7,0x49,0xA9,0xAA,0xAB,0xAC,0xAD,0xAE,0xAF, \
 360:..\..\FatFS-master\source/ff.c **** 					0xB0,0xB1,0xB2,0xB3,0xB4,0xB5,0xB6,0xB7,0xB8,0xB9,0xBA,0xBB,0xBC,0xBD,0xBE,0xBF, \
 361:..\..\FatFS-master\source/ff.c **** 					0xC0,0xC1,0xC2,0xC3,0xC4,0xC5,0xC6,0xC7,0xC8,0xC9,0xCA,0xCB,0xCC,0xCD,0xCE,0xCF, \
 362:..\..\FatFS-master\source/ff.c **** 					0xD0,0xD1,0xD2,0xD3,0xD4,0xD5,0xD6,0xD7,0xD8,0xD9,0xDA,0xDB,0xDC,0xDD,0xDE,0xDF, \
 363:..\..\FatFS-master\source/ff.c **** 					0xE0,0xE1,0xE2,0xE3,0xE4,0xE5,0xE6,0xE7,0xE8,0xE9,0xEA,0xEB,0xEC,0xED,0xEE,0xEF, \
 364:..\..\FatFS-master\source/ff.c **** 					0xF0,0xF1,0xF2,0xF3,0xF4,0xF5,0xF6,0xF7,0xF8,0xF9,0xFA,0xFB,0xFC,0xFD,0xFE,0xFF}
 365:..\..\FatFS-master\source/ff.c **** #define TBL_CT864  {0x80,0x9A,0x45,0x41,0x8E,0x41,0x8F,0x80,0x45,0x45,0x45,0x49,0x49,0x49,0x8E,0x8F
 366:..\..\FatFS-master\source/ff.c **** 					0x90,0x92,0x92,0x4F,0x99,0x4F,0x55,0x55,0x59,0x99,0x9A,0x9B,0x9C,0x9D,0x9E,0x9F, \
 367:..\..\FatFS-master\source/ff.c **** 					0x41,0x49,0x4F,0x55,0xA5,0xA5,0xA6,0xA7,0xA8,0xA9,0xAA,0xAB,0xAC,0xAD,0xAE,0xAF, \
 368:..\..\FatFS-master\source/ff.c **** 					0xB0,0xB1,0xB2,0xB3,0xB4,0xB5,0xB6,0xB7,0xB8,0xB9,0xBA,0xBB,0xBC,0xBD,0xBE,0xBF, \
 369:..\..\FatFS-master\source/ff.c **** 					0xC0,0xC1,0xC2,0xC3,0xC4,0xC5,0xC6,0xC7,0xC8,0xC9,0xCA,0xCB,0xCC,0xCD,0xCE,0xCF, \
 370:..\..\FatFS-master\source/ff.c **** 					0xD0,0xD1,0xD2,0xD3,0xD4,0xD5,0xD6,0xD7,0xD8,0xD9,0xDA,0xDB,0xDC,0xDD,0xDE,0xDF, \
 371:..\..\FatFS-master\source/ff.c **** 					0xE0,0xE1,0xE2,0xE3,0xE4,0xE5,0xE6,0xE7,0xE8,0xE9,0xEA,0xEB,0xEC,0xED,0xEE,0xEF, \
 372:..\..\FatFS-master\source/ff.c **** 					0xF0,0xF1,0xF2,0xF3,0xF4,0xF5,0xF6,0xF7,0xF8,0xF9,0xFA,0xFB,0xFC,0xFD,0xFE,0xFF}
 373:..\..\FatFS-master\source/ff.c **** #define TBL_CT865  {0x80,0x9A,0x90,0x41,0x8E,0x41,0x8F,0x80,0x45,0x45,0x45,0x49,0x49,0x49,0x8E,0x8F
ARM GAS  C:\Users\NUSAIR~1\AppData\Local\Temp\ccFqg92r.s 			page 8


 374:..\..\FatFS-master\source/ff.c **** 					0x90,0x92,0x92,0x4F,0x99,0x4F,0x55,0x55,0x59,0x99,0x9A,0x9B,0x9C,0x9D,0x9E,0x9F, \
 375:..\..\FatFS-master\source/ff.c **** 					0x41,0x49,0x4F,0x55,0xA5,0xA5,0xA6,0xA7,0xA8,0xA9,0xAA,0xAB,0xAC,0xAD,0xAE,0xAF, \
 376:..\..\FatFS-master\source/ff.c **** 					0xB0,0xB1,0xB2,0xB3,0xB4,0xB5,0xB6,0xB7,0xB8,0xB9,0xBA,0xBB,0xBC,0xBD,0xBE,0xBF, \
 377:..\..\FatFS-master\source/ff.c **** 					0xC0,0xC1,0xC2,0xC3,0xC4,0xC5,0xC6,0xC7,0xC8,0xC9,0xCA,0xCB,0xCC,0xCD,0xCE,0xCF, \
 378:..\..\FatFS-master\source/ff.c **** 					0xD0,0xD1,0xD2,0xD3,0xD4,0xD5,0xD6,0xD7,0xD8,0xD9,0xDA,0xDB,0xDC,0xDD,0xDE,0xDF, \
 379:..\..\FatFS-master\source/ff.c **** 					0xE0,0xE1,0xE2,0xE3,0xE4,0xE5,0xE6,0xE7,0xE8,0xE9,0xEA,0xEB,0xEC,0xED,0xEE,0xEF, \
 380:..\..\FatFS-master\source/ff.c **** 					0xF0,0xF1,0xF2,0xF3,0xF4,0xF5,0xF6,0xF7,0xF8,0xF9,0xFA,0xFB,0xFC,0xFD,0xFE,0xFF}
 381:..\..\FatFS-master\source/ff.c **** #define TBL_CT866  {0x80,0x81,0x82,0x83,0x84,0x85,0x86,0x87,0x88,0x89,0x8A,0x8B,0x8C,0x8D,0x8E,0x8F
 382:..\..\FatFS-master\source/ff.c **** 					0x90,0x91,0x92,0x93,0x94,0x95,0x96,0x97,0x98,0x99,0x9A,0x9B,0x9C,0x9D,0x9E,0x9F, \
 383:..\..\FatFS-master\source/ff.c **** 					0x80,0x81,0x82,0x83,0x84,0x85,0x86,0x87,0x88,0x89,0x8A,0x8B,0x8C,0x8D,0x8E,0x8F, \
 384:..\..\FatFS-master\source/ff.c **** 					0xB0,0xB1,0xB2,0xB3,0xB4,0xB5,0xB6,0xB7,0xB8,0xB9,0xBA,0xBB,0xBC,0xBD,0xBE,0xBF, \
 385:..\..\FatFS-master\source/ff.c **** 					0xC0,0xC1,0xC2,0xC3,0xC4,0xC5,0xC6,0xC7,0xC8,0xC9,0xCA,0xCB,0xCC,0xCD,0xCE,0xCF, \
 386:..\..\FatFS-master\source/ff.c **** 					0xD0,0xD1,0xD2,0xD3,0xD4,0xD5,0xD6,0xD7,0xD8,0xD9,0xDA,0xDB,0xDC,0xDD,0xDE,0xDF, \
 387:..\..\FatFS-master\source/ff.c **** 					0x90,0x91,0x92,0x93,0x94,0x95,0x96,0x97,0x98,0x99,0x9A,0x9B,0x9C,0x9D,0x9E,0x9F, \
 388:..\..\FatFS-master\source/ff.c **** 					0xF0,0xF0,0xF2,0xF2,0xF4,0xF4,0xF6,0xF6,0xF8,0xF9,0xFA,0xFB,0xFC,0xFD,0xFE,0xFF}
 389:..\..\FatFS-master\source/ff.c **** #define TBL_CT869  {0x80,0x81,0x82,0x83,0x84,0x85,0x86,0x87,0x88,0x89,0x8A,0x8B,0x8C,0x8D,0x8E,0x8F
 390:..\..\FatFS-master\source/ff.c **** 					0x90,0x91,0x92,0x93,0x94,0x95,0x96,0x97,0x98,0x99,0x9A,0x86,0x9C,0x8D,0x8F,0x90, \
 391:..\..\FatFS-master\source/ff.c **** 					0x91,0x90,0x92,0x95,0xA4,0xA5,0xA6,0xA7,0xA8,0xA9,0xAA,0xAB,0xAC,0xAD,0xAE,0xAF, \
 392:..\..\FatFS-master\source/ff.c **** 					0xB0,0xB1,0xB2,0xB3,0xB4,0xB5,0xB6,0xB7,0xB8,0xB9,0xBA,0xBB,0xBC,0xBD,0xBE,0xBF, \
 393:..\..\FatFS-master\source/ff.c **** 					0xC0,0xC1,0xC2,0xC3,0xC4,0xC5,0xC6,0xC7,0xC8,0xC9,0xCA,0xCB,0xCC,0xCD,0xCE,0xCF, \
 394:..\..\FatFS-master\source/ff.c **** 					0xD0,0xD1,0xD2,0xD3,0xD4,0xD5,0xA4,0xA5,0xA6,0xD9,0xDA,0xDB,0xDC,0xA7,0xA8,0xDF, \
 395:..\..\FatFS-master\source/ff.c **** 					0xA9,0xAA,0xAC,0xAD,0xB5,0xB6,0xB7,0xB8,0xBD,0xBE,0xC6,0xC7,0xCF,0xCF,0xD0,0xEF, \
 396:..\..\FatFS-master\source/ff.c **** 					0xF0,0xF1,0xD1,0xD2,0xD3,0xF5,0xD4,0xF7,0xF8,0xF9,0xD5,0x96,0x95,0x98,0xFE,0xFF}
 397:..\..\FatFS-master\source/ff.c **** 
 398:..\..\FatFS-master\source/ff.c **** 
 399:..\..\FatFS-master\source/ff.c **** /* DBCS code range |----- 1st byte -----|  |----------- 2nd byte -----------| */
 400:..\..\FatFS-master\source/ff.c **** #define TBL_DC932 {0x81, 0x9F, 0xE0, 0xFC, 0x40, 0x7E, 0x80, 0xFC, 0x00, 0x00}
 401:..\..\FatFS-master\source/ff.c **** #define TBL_DC936 {0x81, 0xFE, 0x00, 0x00, 0x40, 0x7E, 0x80, 0xFE, 0x00, 0x00}
 402:..\..\FatFS-master\source/ff.c **** #define TBL_DC949 {0x81, 0xFE, 0x00, 0x00, 0x41, 0x5A, 0x61, 0x7A, 0x81, 0xFE}
 403:..\..\FatFS-master\source/ff.c **** #define TBL_DC950 {0x81, 0xFE, 0x00, 0x00, 0x40, 0x7E, 0xA1, 0xFE, 0x00, 0x00}
 404:..\..\FatFS-master\source/ff.c **** 
 405:..\..\FatFS-master\source/ff.c **** 
 406:..\..\FatFS-master\source/ff.c **** /* Macros for table definitions */
 407:..\..\FatFS-master\source/ff.c **** #define MERGE_2STR(a, b) a ## b
 408:..\..\FatFS-master\source/ff.c **** #define MKCVTBL(hd, cp) MERGE_2STR(hd, cp)
 409:..\..\FatFS-master\source/ff.c **** 
 410:..\..\FatFS-master\source/ff.c **** 
 411:..\..\FatFS-master\source/ff.c **** 
 412:..\..\FatFS-master\source/ff.c **** 
 413:..\..\FatFS-master\source/ff.c **** /*--------------------------------------------------------------------------
 414:..\..\FatFS-master\source/ff.c **** 
 415:..\..\FatFS-master\source/ff.c ****    Module Private Work Area
 416:..\..\FatFS-master\source/ff.c **** 
 417:..\..\FatFS-master\source/ff.c **** ---------------------------------------------------------------------------*/
 418:..\..\FatFS-master\source/ff.c **** /* Remark: Variables defined here without initial value shall be guaranteed
 419:..\..\FatFS-master\source/ff.c **** /  zero/null at start-up. If not, the linker option or start-up routine is
 420:..\..\FatFS-master\source/ff.c **** /  not compliance with C standard. */
 421:..\..\FatFS-master\source/ff.c **** 
 422:..\..\FatFS-master\source/ff.c **** /*--------------------------------*/
 423:..\..\FatFS-master\source/ff.c **** /* File/Volume controls           */
 424:..\..\FatFS-master\source/ff.c **** /*--------------------------------*/
 425:..\..\FatFS-master\source/ff.c **** 
 426:..\..\FatFS-master\source/ff.c **** #if FF_VOLUMES < 1 || FF_VOLUMES > 10
 427:..\..\FatFS-master\source/ff.c **** #error Wrong FF_VOLUMES setting
 428:..\..\FatFS-master\source/ff.c **** #endif
 429:..\..\FatFS-master\source/ff.c **** static FATFS *FatFs[FF_VOLUMES];	/* Pointer to the filesystem objects (logical drives) */
 430:..\..\FatFS-master\source/ff.c **** static WORD Fsid;					/* File system mount ID */
ARM GAS  C:\Users\NUSAIR~1\AppData\Local\Temp\ccFqg92r.s 			page 9


 431:..\..\FatFS-master\source/ff.c **** 
 432:..\..\FatFS-master\source/ff.c **** #if FF_FS_RPATH != 0 && FF_VOLUMES >= 2
 433:..\..\FatFS-master\source/ff.c **** static BYTE CurrVol;				/* Current drive */
 434:..\..\FatFS-master\source/ff.c **** #endif
 435:..\..\FatFS-master\source/ff.c **** 
 436:..\..\FatFS-master\source/ff.c **** #if FF_FS_LOCK != 0
 437:..\..\FatFS-master\source/ff.c **** static FILESEM Files[FF_FS_LOCK];	/* Open object lock semaphores */
 438:..\..\FatFS-master\source/ff.c **** #endif
 439:..\..\FatFS-master\source/ff.c **** 
 440:..\..\FatFS-master\source/ff.c **** 
 441:..\..\FatFS-master\source/ff.c **** 
 442:..\..\FatFS-master\source/ff.c **** /*--------------------------------*/
 443:..\..\FatFS-master\source/ff.c **** /* LFN/Directory working buffer   */
 444:..\..\FatFS-master\source/ff.c **** /*--------------------------------*/
 445:..\..\FatFS-master\source/ff.c **** 
 446:..\..\FatFS-master\source/ff.c **** #if FF_USE_LFN == 0		/* Non-LFN configuration */
 447:..\..\FatFS-master\source/ff.c **** #if FF_FS_EXFAT
 448:..\..\FatFS-master\source/ff.c **** #error LFN must be enabled when enable exFAT
 449:..\..\FatFS-master\source/ff.c **** #endif
 450:..\..\FatFS-master\source/ff.c **** #define DEF_NAMBUF
 451:..\..\FatFS-master\source/ff.c **** #define INIT_NAMBUF(fs)
 452:..\..\FatFS-master\source/ff.c **** #define FREE_NAMBUF()
 453:..\..\FatFS-master\source/ff.c **** #define LEAVE_MKFS(res)	return res
 454:..\..\FatFS-master\source/ff.c **** 
 455:..\..\FatFS-master\source/ff.c **** #else					/* LFN configurations */
 456:..\..\FatFS-master\source/ff.c **** #if FF_MAX_LFN < 12 || FF_MAX_LFN > 255
 457:..\..\FatFS-master\source/ff.c **** #error Wrong setting of FF_MAX_LFN
 458:..\..\FatFS-master\source/ff.c **** #endif
 459:..\..\FatFS-master\source/ff.c **** #if FF_LFN_BUF < 12 || FF_SFN_BUF < 12 || FF_LFN_BUF < FF_SFN_BUF
 460:..\..\FatFS-master\source/ff.c **** #error Wrong setting of FF_LFN_BUF or FF_SFN_BUF
 461:..\..\FatFS-master\source/ff.c **** #endif
 462:..\..\FatFS-master\source/ff.c **** #if FF_LFN_UNICODE < 0 || FF_LFN_UNICODE > 2
 463:..\..\FatFS-master\source/ff.c **** #error Wrong setting of FF_LFN_UNICODE
 464:..\..\FatFS-master\source/ff.c **** #endif
 465:..\..\FatFS-master\source/ff.c **** static const BYTE LfnOfs[] = {1,3,5,7,9,14,16,18,20,22,24,28,30};	/* FAT: Offset of LFN characters 
 466:..\..\FatFS-master\source/ff.c **** #define MAXDIRB(nc)	((nc + 44U) / 15 * SZDIRE)	/* exFAT: Size of directory entry block scratchpad b
 467:..\..\FatFS-master\source/ff.c **** 
 468:..\..\FatFS-master\source/ff.c **** #if FF_USE_LFN == 1		/* LFN enabled with static working buffer */
 469:..\..\FatFS-master\source/ff.c **** #if FF_FS_EXFAT
 470:..\..\FatFS-master\source/ff.c **** static BYTE	DirBuf[MAXDIRB(FF_MAX_LFN)];	/* Directory entry block scratchpad buffer */
 471:..\..\FatFS-master\source/ff.c **** #endif
 472:..\..\FatFS-master\source/ff.c **** static WCHAR LfnBuf[FF_MAX_LFN + 1];		/* LFN working buffer */
 473:..\..\FatFS-master\source/ff.c **** #define DEF_NAMBUF
 474:..\..\FatFS-master\source/ff.c **** #define INIT_NAMBUF(fs)
 475:..\..\FatFS-master\source/ff.c **** #define FREE_NAMBUF()
 476:..\..\FatFS-master\source/ff.c **** #define LEAVE_MKFS(res)	return res
 477:..\..\FatFS-master\source/ff.c **** 
 478:..\..\FatFS-master\source/ff.c **** #elif FF_USE_LFN == 2 	/* LFN enabled with dynamic working buffer on the stack */
 479:..\..\FatFS-master\source/ff.c **** #if FF_FS_EXFAT
 480:..\..\FatFS-master\source/ff.c **** #define DEF_NAMBUF		WCHAR lbuf[FF_MAX_LFN+1]; BYTE dbuf[MAXDIRB(FF_MAX_LFN)];	/* LFN working buffer
 481:..\..\FatFS-master\source/ff.c **** #define INIT_NAMBUF(fs)	{ (fs)->lfnbuf = lbuf; (fs)->dirbuf = dbuf; }
 482:..\..\FatFS-master\source/ff.c **** #define FREE_NAMBUF()
 483:..\..\FatFS-master\source/ff.c **** #else
 484:..\..\FatFS-master\source/ff.c **** #define DEF_NAMBUF		WCHAR lbuf[FF_MAX_LFN+1];	/* LFN working buffer */
 485:..\..\FatFS-master\source/ff.c **** #define INIT_NAMBUF(fs)	{ (fs)->lfnbuf = lbuf; }
 486:..\..\FatFS-master\source/ff.c **** #define FREE_NAMBUF()
 487:..\..\FatFS-master\source/ff.c **** #endif
ARM GAS  C:\Users\NUSAIR~1\AppData\Local\Temp\ccFqg92r.s 			page 10


 488:..\..\FatFS-master\source/ff.c **** #define LEAVE_MKFS(res)	return res
 489:..\..\FatFS-master\source/ff.c **** 
 490:..\..\FatFS-master\source/ff.c **** #elif FF_USE_LFN == 3 	/* LFN enabled with dynamic working buffer on the heap */
 491:..\..\FatFS-master\source/ff.c **** #if FF_FS_EXFAT
 492:..\..\FatFS-master\source/ff.c **** #define DEF_NAMBUF		WCHAR *lfn;	/* Pointer to LFN working buffer and directory entry block scratchp
 493:..\..\FatFS-master\source/ff.c **** #define INIT_NAMBUF(fs)	{ lfn = ff_memalloc((FF_MAX_LFN+1)*2 + MAXDIRB(FF_MAX_LFN)); if (!lfn) LEAV
 494:..\..\FatFS-master\source/ff.c **** #define FREE_NAMBUF()	ff_memfree(lfn)
 495:..\..\FatFS-master\source/ff.c **** #else
 496:..\..\FatFS-master\source/ff.c **** #define DEF_NAMBUF		WCHAR *lfn;	/* Pointer to LFN working buffer */
 497:..\..\FatFS-master\source/ff.c **** #define INIT_NAMBUF(fs)	{ lfn = ff_memalloc((FF_MAX_LFN+1)*2); if (!lfn) LEAVE_FF(fs, FR_NOT_ENOUGH
 498:..\..\FatFS-master\source/ff.c **** #define FREE_NAMBUF()	ff_memfree(lfn)
 499:..\..\FatFS-master\source/ff.c **** #endif
 500:..\..\FatFS-master\source/ff.c **** #define LEAVE_MKFS(res)	{ if (!work) ff_memfree(buf); return res; }
 501:..\..\FatFS-master\source/ff.c **** #define MAX_MALLOC	0x8000
 502:..\..\FatFS-master\source/ff.c **** 
 503:..\..\FatFS-master\source/ff.c **** #else
 504:..\..\FatFS-master\source/ff.c **** #error Wrong setting of FF_USE_LFN
 505:..\..\FatFS-master\source/ff.c **** 
 506:..\..\FatFS-master\source/ff.c **** #endif	/* FF_USE_LFN == 1 */
 507:..\..\FatFS-master\source/ff.c **** #endif	/* FF_USE_LFN == 0 */
 508:..\..\FatFS-master\source/ff.c **** 
 509:..\..\FatFS-master\source/ff.c **** 
 510:..\..\FatFS-master\source/ff.c **** 
 511:..\..\FatFS-master\source/ff.c **** /*--------------------------------*/
 512:..\..\FatFS-master\source/ff.c **** /* Code conversion tables         */
 513:..\..\FatFS-master\source/ff.c **** /*--------------------------------*/
 514:..\..\FatFS-master\source/ff.c **** 
 515:..\..\FatFS-master\source/ff.c **** #if FF_CODE_PAGE == 0		/* Run-time code page configuration */
 516:..\..\FatFS-master\source/ff.c **** #define CODEPAGE CodePage
 517:..\..\FatFS-master\source/ff.c **** static WORD CodePage;	/* Current code page */
 518:..\..\FatFS-master\source/ff.c **** static const BYTE *ExCvt, *DbcTbl;	/* Pointer to current SBCS up-case table and DBCS code range tab
 519:..\..\FatFS-master\source/ff.c **** static const BYTE Ct437[] = TBL_CT437;
 520:..\..\FatFS-master\source/ff.c **** static const BYTE Ct720[] = TBL_CT720;
 521:..\..\FatFS-master\source/ff.c **** static const BYTE Ct737[] = TBL_CT737;
 522:..\..\FatFS-master\source/ff.c **** static const BYTE Ct771[] = TBL_CT771;
 523:..\..\FatFS-master\source/ff.c **** static const BYTE Ct775[] = TBL_CT775;
 524:..\..\FatFS-master\source/ff.c **** static const BYTE Ct850[] = TBL_CT850;
 525:..\..\FatFS-master\source/ff.c **** static const BYTE Ct852[] = TBL_CT852;
 526:..\..\FatFS-master\source/ff.c **** static const BYTE Ct855[] = TBL_CT855;
 527:..\..\FatFS-master\source/ff.c **** static const BYTE Ct857[] = TBL_CT857;
 528:..\..\FatFS-master\source/ff.c **** static const BYTE Ct860[] = TBL_CT860;
 529:..\..\FatFS-master\source/ff.c **** static const BYTE Ct861[] = TBL_CT861;
 530:..\..\FatFS-master\source/ff.c **** static const BYTE Ct862[] = TBL_CT862;
 531:..\..\FatFS-master\source/ff.c **** static const BYTE Ct863[] = TBL_CT863;
 532:..\..\FatFS-master\source/ff.c **** static const BYTE Ct864[] = TBL_CT864;
 533:..\..\FatFS-master\source/ff.c **** static const BYTE Ct865[] = TBL_CT865;
 534:..\..\FatFS-master\source/ff.c **** static const BYTE Ct866[] = TBL_CT866;
 535:..\..\FatFS-master\source/ff.c **** static const BYTE Ct869[] = TBL_CT869;
 536:..\..\FatFS-master\source/ff.c **** static const BYTE Dc932[] = TBL_DC932;
 537:..\..\FatFS-master\source/ff.c **** static const BYTE Dc936[] = TBL_DC936;
 538:..\..\FatFS-master\source/ff.c **** static const BYTE Dc949[] = TBL_DC949;
 539:..\..\FatFS-master\source/ff.c **** static const BYTE Dc950[] = TBL_DC950;
 540:..\..\FatFS-master\source/ff.c **** 
 541:..\..\FatFS-master\source/ff.c **** #elif FF_CODE_PAGE < 900	/* Static code page configuration (SBCS) */
 542:..\..\FatFS-master\source/ff.c **** #define CODEPAGE FF_CODE_PAGE
 543:..\..\FatFS-master\source/ff.c **** static const BYTE ExCvt[] = MKCVTBL(TBL_CT, FF_CODE_PAGE);
 544:..\..\FatFS-master\source/ff.c **** 
ARM GAS  C:\Users\NUSAIR~1\AppData\Local\Temp\ccFqg92r.s 			page 11


 545:..\..\FatFS-master\source/ff.c **** #else					/* Static code page configuration (DBCS) */
 546:..\..\FatFS-master\source/ff.c **** #define CODEPAGE FF_CODE_PAGE
 547:..\..\FatFS-master\source/ff.c **** static const BYTE DbcTbl[] = MKCVTBL(TBL_DC, FF_CODE_PAGE);
 548:..\..\FatFS-master\source/ff.c **** 
 549:..\..\FatFS-master\source/ff.c **** #endif
 550:..\..\FatFS-master\source/ff.c **** 
 551:..\..\FatFS-master\source/ff.c **** 
 552:..\..\FatFS-master\source/ff.c **** 
 553:..\..\FatFS-master\source/ff.c **** 
 554:..\..\FatFS-master\source/ff.c **** /*--------------------------------------------------------------------------
 555:..\..\FatFS-master\source/ff.c **** 
 556:..\..\FatFS-master\source/ff.c ****    Module Private Functions
 557:..\..\FatFS-master\source/ff.c **** 
 558:..\..\FatFS-master\source/ff.c **** ---------------------------------------------------------------------------*/
 559:..\..\FatFS-master\source/ff.c **** 
 560:..\..\FatFS-master\source/ff.c **** 
 561:..\..\FatFS-master\source/ff.c **** /*-----------------------------------------------------------------------*/
 562:..\..\FatFS-master\source/ff.c **** /* Load/Store multi-byte word in the FAT structure                       */
 563:..\..\FatFS-master\source/ff.c **** /*-----------------------------------------------------------------------*/
 564:..\..\FatFS-master\source/ff.c **** 
 565:..\..\FatFS-master\source/ff.c **** static
 566:..\..\FatFS-master\source/ff.c **** WORD ld_word (const BYTE* ptr)	/*	 Load a 2-byte little-endian word */
 567:..\..\FatFS-master\source/ff.c **** {
  27              		.loc 1 567 0
  28              		.cfi_startproc
  29              		@ args = 0, pretend = 0, frame = 0
  30              		@ frame_needed = 0, uses_anonymous_args = 0
  31              		@ link register save eliminated.
  32              	.LVL0:
 568:..\..\FatFS-master\source/ff.c **** 	WORD rv;
 569:..\..\FatFS-master\source/ff.c **** 
 570:..\..\FatFS-master\source/ff.c **** 	rv = ptr[1];
  33              		.loc 1 570 0
  34 0000 4278     		ldrb	r2, [r0, #1]
  35              	.LVL1:
 571:..\..\FatFS-master\source/ff.c **** 	rv = rv << 8 | ptr[0];
  36              		.loc 1 571 0
  37 0002 1202     		lsls	r2, r2, #8
  38              	.LVL2:
  39 0004 0378     		ldrb	r3, [r0]
  40 0006 1A43     		orrs	r2, r3
  41 0008 1000     		movs	r0, r2
  42              	.LVL3:
 572:..\..\FatFS-master\source/ff.c **** 	return rv;
 573:..\..\FatFS-master\source/ff.c **** }
  43              		.loc 1 573 0
  44              		@ sp needed
  45 000a 7047     		bx	lr
  46              		.cfi_endproc
  47              	.LFE0:
  48              		.size	ld_word, .-ld_word
  49              		.section	.text.ld_dword,"ax",%progbits
  50              		.align	2
  51              		.code	16
  52              		.thumb_func
  53              		.type	ld_dword, %function
  54              	ld_dword:
ARM GAS  C:\Users\NUSAIR~1\AppData\Local\Temp\ccFqg92r.s 			page 12


  55              	.LFB1:
 574:..\..\FatFS-master\source/ff.c **** 
 575:..\..\FatFS-master\source/ff.c **** static
 576:..\..\FatFS-master\source/ff.c **** DWORD ld_dword (const BYTE* ptr)	/* Load a 4-byte little-endian word */
 577:..\..\FatFS-master\source/ff.c **** {
  56              		.loc 1 577 0
  57              		.cfi_startproc
  58              		@ args = 0, pretend = 0, frame = 0
  59              		@ frame_needed = 0, uses_anonymous_args = 0
  60              		@ link register save eliminated.
  61              	.LVL4:
 578:..\..\FatFS-master\source/ff.c **** 	DWORD rv;
 579:..\..\FatFS-master\source/ff.c **** 
 580:..\..\FatFS-master\source/ff.c **** 	rv = ptr[3];
  62              		.loc 1 580 0
  63 0000 C378     		ldrb	r3, [r0, #3]
  64              	.LVL5:
 581:..\..\FatFS-master\source/ff.c **** 	rv = rv << 8 | ptr[2];
  65              		.loc 1 581 0
  66 0002 1B02     		lsls	r3, r3, #8
  67              	.LVL6:
  68 0004 8278     		ldrb	r2, [r0, #2]
  69 0006 1343     		orrs	r3, r2
  70              	.LVL7:
 582:..\..\FatFS-master\source/ff.c **** 	rv = rv << 8 | ptr[1];
  71              		.loc 1 582 0
  72 0008 1B02     		lsls	r3, r3, #8
  73              	.LVL8:
  74 000a 4278     		ldrb	r2, [r0, #1]
  75              	.LVL9:
  76 000c 1343     		orrs	r3, r2
  77              	.LVL10:
 583:..\..\FatFS-master\source/ff.c **** 	rv = rv << 8 | ptr[0];
  78              		.loc 1 583 0
  79 000e 1B02     		lsls	r3, r3, #8
  80              	.LVL11:
  81 0010 0078     		ldrb	r0, [r0]
  82              	.LVL12:
  83 0012 1843     		orrs	r0, r3
  84              	.LVL13:
 584:..\..\FatFS-master\source/ff.c **** 	return rv;
 585:..\..\FatFS-master\source/ff.c **** }
  85              		.loc 1 585 0
  86              		@ sp needed
  87 0014 7047     		bx	lr
  88              		.cfi_endproc
  89              	.LFE1:
  90              		.size	ld_dword, .-ld_dword
  91 0016 C046     		.section	.text.st_word,"ax",%progbits
  92              		.align	2
  93              		.code	16
  94              		.thumb_func
  95              		.type	st_word, %function
  96              	st_word:
  97              	.LFB2:
 586:..\..\FatFS-master\source/ff.c **** 
 587:..\..\FatFS-master\source/ff.c **** #if FF_FS_EXFAT
ARM GAS  C:\Users\NUSAIR~1\AppData\Local\Temp\ccFqg92r.s 			page 13


 588:..\..\FatFS-master\source/ff.c **** static
 589:..\..\FatFS-master\source/ff.c **** QWORD ld_qword (const BYTE* ptr)	/* Load an 8-byte little-endian word */
 590:..\..\FatFS-master\source/ff.c **** {
 591:..\..\FatFS-master\source/ff.c **** 	QWORD rv;
 592:..\..\FatFS-master\source/ff.c **** 
 593:..\..\FatFS-master\source/ff.c **** 	rv = ptr[7];
 594:..\..\FatFS-master\source/ff.c **** 	rv = rv << 8 | ptr[6];
 595:..\..\FatFS-master\source/ff.c **** 	rv = rv << 8 | ptr[5];
 596:..\..\FatFS-master\source/ff.c **** 	rv = rv << 8 | ptr[4];
 597:..\..\FatFS-master\source/ff.c **** 	rv = rv << 8 | ptr[3];
 598:..\..\FatFS-master\source/ff.c **** 	rv = rv << 8 | ptr[2];
 599:..\..\FatFS-master\source/ff.c **** 	rv = rv << 8 | ptr[1];
 600:..\..\FatFS-master\source/ff.c **** 	rv = rv << 8 | ptr[0];
 601:..\..\FatFS-master\source/ff.c **** 	return rv;
 602:..\..\FatFS-master\source/ff.c **** }
 603:..\..\FatFS-master\source/ff.c **** #endif
 604:..\..\FatFS-master\source/ff.c **** 
 605:..\..\FatFS-master\source/ff.c **** #if !FF_FS_READONLY
 606:..\..\FatFS-master\source/ff.c **** static
 607:..\..\FatFS-master\source/ff.c **** void st_word (BYTE* ptr, WORD val)	/* Store a 2-byte word in little-endian */
 608:..\..\FatFS-master\source/ff.c **** {
  98              		.loc 1 608 0
  99              		.cfi_startproc
 100              		@ args = 0, pretend = 0, frame = 0
 101              		@ frame_needed = 0, uses_anonymous_args = 0
 102              		@ link register save eliminated.
 103              	.LVL14:
 609:..\..\FatFS-master\source/ff.c **** 	*ptr++ = (BYTE)val; val >>= 8;
 104              		.loc 1 609 0
 105 0000 0170     		strb	r1, [r0]
 106              	.LVL15:
 610:..\..\FatFS-master\source/ff.c **** 	*ptr++ = (BYTE)val;
 107              		.loc 1 610 0
 108 0002 090A     		lsrs	r1, r1, #8
 109              	.LVL16:
 110 0004 4170     		strb	r1, [r0, #1]
 611:..\..\FatFS-master\source/ff.c **** }
 111              		.loc 1 611 0
 112              		@ sp needed
 113 0006 7047     		bx	lr
 114              		.cfi_endproc
 115              	.LFE2:
 116              		.size	st_word, .-st_word
 117              		.section	.text.st_dword,"ax",%progbits
 118              		.align	2
 119              		.code	16
 120              		.thumb_func
 121              		.type	st_dword, %function
 122              	st_dword:
 123              	.LFB3:
 612:..\..\FatFS-master\source/ff.c **** 
 613:..\..\FatFS-master\source/ff.c **** static
 614:..\..\FatFS-master\source/ff.c **** void st_dword (BYTE* ptr, DWORD val)	/* Store a 4-byte word in little-endian */
 615:..\..\FatFS-master\source/ff.c **** {
 124              		.loc 1 615 0
 125              		.cfi_startproc
 126              		@ args = 0, pretend = 0, frame = 0
ARM GAS  C:\Users\NUSAIR~1\AppData\Local\Temp\ccFqg92r.s 			page 14


 127              		@ frame_needed = 0, uses_anonymous_args = 0
 128              		@ link register save eliminated.
 129              	.LVL17:
 616:..\..\FatFS-master\source/ff.c **** 	*ptr++ = (BYTE)val; val >>= 8;
 130              		.loc 1 616 0
 131 0000 0170     		strb	r1, [r0]
 132 0002 0B0A     		lsrs	r3, r1, #8
 133              	.LVL18:
 617:..\..\FatFS-master\source/ff.c **** 	*ptr++ = (BYTE)val; val >>= 8;
 134              		.loc 1 617 0
 135 0004 4370     		strb	r3, [r0, #1]
 136 0006 0B0C     		lsrs	r3, r1, #16
 137              	.LVL19:
 618:..\..\FatFS-master\source/ff.c **** 	*ptr++ = (BYTE)val; val >>= 8;
 138              		.loc 1 618 0
 139 0008 8370     		strb	r3, [r0, #2]
 140              	.LVL20:
 619:..\..\FatFS-master\source/ff.c **** 	*ptr++ = (BYTE)val;
 141              		.loc 1 619 0
 142 000a 090E     		lsrs	r1, r1, #24
 143              	.LVL21:
 144 000c C170     		strb	r1, [r0, #3]
 620:..\..\FatFS-master\source/ff.c **** }
 145              		.loc 1 620 0
 146              		@ sp needed
 147 000e 7047     		bx	lr
 148              		.cfi_endproc
 149              	.LFE3:
 150              		.size	st_dword, .-st_dword
 151              		.section	.text.mem_cpy,"ax",%progbits
 152              		.align	2
 153              		.code	16
 154              		.thumb_func
 155              		.type	mem_cpy, %function
 156              	mem_cpy:
 157              	.LFB4:
 621:..\..\FatFS-master\source/ff.c **** 
 622:..\..\FatFS-master\source/ff.c **** #if FF_FS_EXFAT
 623:..\..\FatFS-master\source/ff.c **** static
 624:..\..\FatFS-master\source/ff.c **** void st_qword (BYTE* ptr, QWORD val)	/* Store an 8-byte word in little-endian */
 625:..\..\FatFS-master\source/ff.c **** {
 626:..\..\FatFS-master\source/ff.c **** 	*ptr++ = (BYTE)val; val >>= 8;
 627:..\..\FatFS-master\source/ff.c **** 	*ptr++ = (BYTE)val; val >>= 8;
 628:..\..\FatFS-master\source/ff.c **** 	*ptr++ = (BYTE)val; val >>= 8;
 629:..\..\FatFS-master\source/ff.c **** 	*ptr++ = (BYTE)val; val >>= 8;
 630:..\..\FatFS-master\source/ff.c **** 	*ptr++ = (BYTE)val; val >>= 8;
 631:..\..\FatFS-master\source/ff.c **** 	*ptr++ = (BYTE)val; val >>= 8;
 632:..\..\FatFS-master\source/ff.c **** 	*ptr++ = (BYTE)val; val >>= 8;
 633:..\..\FatFS-master\source/ff.c **** 	*ptr++ = (BYTE)val;
 634:..\..\FatFS-master\source/ff.c **** }
 635:..\..\FatFS-master\source/ff.c **** #endif
 636:..\..\FatFS-master\source/ff.c **** #endif	/* !FF_FS_READONLY */
 637:..\..\FatFS-master\source/ff.c **** 
 638:..\..\FatFS-master\source/ff.c **** 
 639:..\..\FatFS-master\source/ff.c **** 
 640:..\..\FatFS-master\source/ff.c **** /*-----------------------------------------------------------------------*/
 641:..\..\FatFS-master\source/ff.c **** /* String functions                                                      */
ARM GAS  C:\Users\NUSAIR~1\AppData\Local\Temp\ccFqg92r.s 			page 15


 642:..\..\FatFS-master\source/ff.c **** /*-----------------------------------------------------------------------*/
 643:..\..\FatFS-master\source/ff.c **** 
 644:..\..\FatFS-master\source/ff.c **** /* Copy memory to memory */
 645:..\..\FatFS-master\source/ff.c **** static
 646:..\..\FatFS-master\source/ff.c **** void mem_cpy (void* dst, const void* src, UINT cnt)
 647:..\..\FatFS-master\source/ff.c **** {
 158              		.loc 1 647 0
 159              		.cfi_startproc
 160              		@ args = 0, pretend = 0, frame = 0
 161              		@ frame_needed = 0, uses_anonymous_args = 0
 162              		@ link register save eliminated.
 163              	.LVL22:
 648:..\..\FatFS-master\source/ff.c **** 	BYTE *d = (BYTE*)dst;
 649:..\..\FatFS-master\source/ff.c **** 	const BYTE *s = (const BYTE*)src;
 650:..\..\FatFS-master\source/ff.c **** 
 651:..\..\FatFS-master\source/ff.c **** 	if (cnt != 0) {
 164              		.loc 1 651 0
 165 0000 002A     		cmp	r2, #0
 166 0002 06D0     		beq	.L5
 167              	.LVL23:
 168              	.L7:
 652:..\..\FatFS-master\source/ff.c **** 		do {
 653:..\..\FatFS-master\source/ff.c **** 			*d++ = *s++;
 169              		.loc 1 653 0 discriminator 1
 170 0004 0B78     		ldrb	r3, [r1]
 171 0006 0370     		strb	r3, [r0]
 654:..\..\FatFS-master\source/ff.c **** 		} while (--cnt);
 172              		.loc 1 654 0 discriminator 1
 173 0008 013A     		subs	r2, r2, #1
 174              	.LVL24:
 653:..\..\FatFS-master\source/ff.c **** 		} while (--cnt);
 175              		.loc 1 653 0 discriminator 1
 176 000a 0130     		adds	r0, r0, #1
 177              	.LVL25:
 178 000c 0131     		adds	r1, r1, #1
 179              	.LVL26:
 180              		.loc 1 654 0 discriminator 1
 181 000e 002A     		cmp	r2, #0
 182 0010 F8D1     		bne	.L7
 183              	.L5:
 655:..\..\FatFS-master\source/ff.c **** 	}
 656:..\..\FatFS-master\source/ff.c **** }
 184              		.loc 1 656 0
 185              		@ sp needed
 186 0012 7047     		bx	lr
 187              		.cfi_endproc
 188              	.LFE4:
 189              		.size	mem_cpy, .-mem_cpy
 190              		.section	.text.mem_set,"ax",%progbits
 191              		.align	2
 192              		.code	16
 193              		.thumb_func
 194              		.type	mem_set, %function
 195              	mem_set:
 196              	.LFB5:
 657:..\..\FatFS-master\source/ff.c **** 
 658:..\..\FatFS-master\source/ff.c **** 
ARM GAS  C:\Users\NUSAIR~1\AppData\Local\Temp\ccFqg92r.s 			page 16


 659:..\..\FatFS-master\source/ff.c **** /* Fill memory block */
 660:..\..\FatFS-master\source/ff.c **** static
 661:..\..\FatFS-master\source/ff.c **** void mem_set (void* dst, int val, UINT cnt)
 662:..\..\FatFS-master\source/ff.c **** {
 197              		.loc 1 662 0
 198              		.cfi_startproc
 199              		@ args = 0, pretend = 0, frame = 0
 200              		@ frame_needed = 0, uses_anonymous_args = 0
 201              		@ link register save eliminated.
 202              	.LVL27:
 203              	.L9:
 663:..\..\FatFS-master\source/ff.c **** 	BYTE *d = (BYTE*)dst;
 664:..\..\FatFS-master\source/ff.c **** 
 665:..\..\FatFS-master\source/ff.c **** 	do {
 666:..\..\FatFS-master\source/ff.c **** 		*d++ = (BYTE)val;
 204              		.loc 1 666 0 discriminator 1
 205 0000 0170     		strb	r1, [r0]
 667:..\..\FatFS-master\source/ff.c **** 	} while (--cnt);
 206              		.loc 1 667 0 discriminator 1
 207 0002 013A     		subs	r2, r2, #1
 208              	.LVL28:
 666:..\..\FatFS-master\source/ff.c **** 	} while (--cnt);
 209              		.loc 1 666 0 discriminator 1
 210 0004 0130     		adds	r0, r0, #1
 211              	.LVL29:
 212              		.loc 1 667 0 discriminator 1
 213 0006 002A     		cmp	r2, #0
 214 0008 FAD1     		bne	.L9
 668:..\..\FatFS-master\source/ff.c **** }
 215              		.loc 1 668 0
 216              		@ sp needed
 217 000a 7047     		bx	lr
 218              		.cfi_endproc
 219              	.LFE5:
 220              		.size	mem_set, .-mem_set
 221              		.section	.text.mem_cmp,"ax",%progbits
 222              		.align	2
 223              		.code	16
 224              		.thumb_func
 225              		.type	mem_cmp, %function
 226              	mem_cmp:
 227              	.LFB6:
 669:..\..\FatFS-master\source/ff.c **** 
 670:..\..\FatFS-master\source/ff.c **** 
 671:..\..\FatFS-master\source/ff.c **** /* Compare memory block */
 672:..\..\FatFS-master\source/ff.c **** static
 673:..\..\FatFS-master\source/ff.c **** int mem_cmp (const void* dst, const void* src, UINT cnt)	/* ZR:same, NZ:different */
 674:..\..\FatFS-master\source/ff.c **** {
 228              		.loc 1 674 0
 229              		.cfi_startproc
 230              		@ args = 0, pretend = 0, frame = 0
 231              		@ frame_needed = 0, uses_anonymous_args = 0
 232              	.LVL30:
 233 0000 30B5     		push	{r4, r5, lr}
 234              		.cfi_def_cfa_offset 12
 235              		.cfi_offset 4, -12
 236              		.cfi_offset 5, -8
ARM GAS  C:\Users\NUSAIR~1\AppData\Local\Temp\ccFqg92r.s 			page 17


 237              		.cfi_offset 14, -4
 238 0002 0300     		movs	r3, r0
 239              	.LVL31:
 240              	.L12:
 675:..\..\FatFS-master\source/ff.c **** 	const BYTE *d = (const BYTE *)dst, *s = (const BYTE *)src;
 676:..\..\FatFS-master\source/ff.c **** 	int r = 0;
 677:..\..\FatFS-master\source/ff.c **** 
 678:..\..\FatFS-master\source/ff.c **** 	do {
 679:..\..\FatFS-master\source/ff.c **** 		r = *d++ - *s++;
 241              		.loc 1 679 0 discriminator 2
 242 0004 5D1C     		adds	r5, r3, #1
 243              	.LVL32:
 244 0006 1B78     		ldrb	r3, [r3]
 245 0008 4C1C     		adds	r4, r1, #1
 246              	.LVL33:
 247 000a 0878     		ldrb	r0, [r1]
 248 000c 181A     		subs	r0, r3, r0
 249              	.LVL34:
 680:..\..\FatFS-master\source/ff.c **** 	} while (--cnt && r == 0);
 250              		.loc 1 680 0 discriminator 2
 251 000e 013A     		subs	r2, r2, #1
 252              	.LVL35:
 253 0010 002A     		cmp	r2, #0
 254 0012 03D0     		beq	.L11
 679:..\..\FatFS-master\source/ff.c **** 	} while (--cnt && r == 0);
 255              		.loc 1 679 0 discriminator 1
 256 0014 2B00     		movs	r3, r5
 257 0016 2100     		movs	r1, r4
 258              		.loc 1 680 0 discriminator 1
 259 0018 0028     		cmp	r0, #0
 260 001a F3D0     		beq	.L12
 261              	.L11:
 681:..\..\FatFS-master\source/ff.c **** 
 682:..\..\FatFS-master\source/ff.c **** 	return r;
 683:..\..\FatFS-master\source/ff.c **** }
 262              		.loc 1 683 0
 263              		@ sp needed
 264              	.LVL36:
 265              	.LVL37:
 266 001c 30BD     		pop	{r4, r5, pc}
 267              		.cfi_endproc
 268              	.LFE6:
 269              		.size	mem_cmp, .-mem_cmp
 270 001e C046     		.section	.text.chk_chr,"ax",%progbits
 271              		.align	2
 272              		.code	16
 273              		.thumb_func
 274              		.type	chk_chr, %function
 275              	chk_chr:
 276              	.LFB7:
 684:..\..\FatFS-master\source/ff.c **** 
 685:..\..\FatFS-master\source/ff.c **** 
 686:..\..\FatFS-master\source/ff.c **** /* Check if chr is contained in the string */
 687:..\..\FatFS-master\source/ff.c **** static
 688:..\..\FatFS-master\source/ff.c **** int chk_chr (const char* str, int chr)	/* NZ:contained, ZR:not contained */
 689:..\..\FatFS-master\source/ff.c **** {
 277              		.loc 1 689 0
ARM GAS  C:\Users\NUSAIR~1\AppData\Local\Temp\ccFqg92r.s 			page 18


 278              		.cfi_startproc
 279              		@ args = 0, pretend = 0, frame = 0
 280              		@ frame_needed = 0, uses_anonymous_args = 0
 281              		@ link register save eliminated.
 282              	.LVL38:
 690:..\..\FatFS-master\source/ff.c **** 	while (*str && *str != chr) str++;
 283              		.loc 1 690 0
 284 0000 00E0     		b	.L14
 285              	.L16:
 286              		.loc 1 690 0 is_stmt 0 discriminator 3
 287 0002 0130     		adds	r0, r0, #1
 288              	.LVL39:
 289              	.L14:
 290              		.loc 1 690 0 discriminator 1
 291 0004 0378     		ldrb	r3, [r0]
 292 0006 002B     		cmp	r3, #0
 293 0008 01D0     		beq	.L15
 294              		.loc 1 690 0 discriminator 2
 295 000a 8B42     		cmp	r3, r1
 296 000c F9D1     		bne	.L16
 297              	.L15:
 691:..\..\FatFS-master\source/ff.c **** 	return *str;
 692:..\..\FatFS-master\source/ff.c **** }
 298              		.loc 1 692 0 is_stmt 1
 299 000e 1800     		movs	r0, r3
 300              	.LVL40:
 301              		@ sp needed
 302 0010 7047     		bx	lr
 303              		.cfi_endproc
 304              	.LFE7:
 305              		.size	chk_chr, .-chk_chr
 306 0012 C046     		.section	.text.dbc_1st,"ax",%progbits
 307              		.align	2
 308              		.code	16
 309              		.thumb_func
 310              		.type	dbc_1st, %function
 311              	dbc_1st:
 312              	.LFB8:
 693:..\..\FatFS-master\source/ff.c **** 
 694:..\..\FatFS-master\source/ff.c **** 
 695:..\..\FatFS-master\source/ff.c **** /* Test if the character is DBC 1st byte */
 696:..\..\FatFS-master\source/ff.c **** static
 697:..\..\FatFS-master\source/ff.c **** int dbc_1st (BYTE c)
 698:..\..\FatFS-master\source/ff.c **** {
 313              		.loc 1 698 0
 314              		.cfi_startproc
 315              		@ args = 0, pretend = 0, frame = 0
 316              		@ frame_needed = 0, uses_anonymous_args = 0
 317              		@ link register save eliminated.
 318              	.LVL41:
 699:..\..\FatFS-master\source/ff.c **** #if FF_CODE_PAGE == 0		/* Variable code page */
 700:..\..\FatFS-master\source/ff.c **** 	if (DbcTbl && c >= DbcTbl[0]) {
 701:..\..\FatFS-master\source/ff.c **** 		if (c <= DbcTbl[1]) return 1;					/* 1st byte range 1 */
 702:..\..\FatFS-master\source/ff.c **** 		if (c >= DbcTbl[2] && c <= DbcTbl[3]) return 1;	/* 1st byte range 2 */
 703:..\..\FatFS-master\source/ff.c **** 	}
 704:..\..\FatFS-master\source/ff.c **** #elif FF_CODE_PAGE >= 900	/* DBCS fixed code page */
 705:..\..\FatFS-master\source/ff.c **** 	if (c >= DbcTbl[0]) {
ARM GAS  C:\Users\NUSAIR~1\AppData\Local\Temp\ccFqg92r.s 			page 19


 319              		.loc 1 705 0
 320 0000 8028     		cmp	r0, #128
 321 0002 07D9     		bls	.L19
 706:..\..\FatFS-master\source/ff.c **** 		if (c <= DbcTbl[1]) return 1;
 322              		.loc 1 706 0
 323 0004 9F28     		cmp	r0, #159
 324 0006 07D9     		bls	.L20
 707:..\..\FatFS-master\source/ff.c **** 		if (c >= DbcTbl[2] && c <= DbcTbl[3]) return 1;
 325              		.loc 1 707 0
 326 0008 DF28     		cmp	r0, #223
 327 000a 07D9     		bls	.L21
 328              		.loc 1 707 0 is_stmt 0 discriminator 1
 329 000c FC28     		cmp	r0, #252
 330 000e 07D9     		bls	.L22
 708:..\..\FatFS-master\source/ff.c **** 	}
 709:..\..\FatFS-master\source/ff.c **** #else						/* SBCS fixed code page */
 710:..\..\FatFS-master\source/ff.c **** 	if (c != 0) return 0;	/* Always false */
 711:..\..\FatFS-master\source/ff.c **** #endif
 712:..\..\FatFS-master\source/ff.c **** 	return 0;
 331              		.loc 1 712 0 is_stmt 1
 332 0010 0020     		movs	r0, #0
 333              	.LVL42:
 334 0012 06E0     		b	.L18
 335              	.LVL43:
 336              	.L19:
 337 0014 0020     		movs	r0, #0
 338              	.LVL44:
 339 0016 04E0     		b	.L18
 340              	.LVL45:
 341              	.L20:
 706:..\..\FatFS-master\source/ff.c **** 		if (c >= DbcTbl[2] && c <= DbcTbl[3]) return 1;
 342              		.loc 1 706 0
 343 0018 0120     		movs	r0, #1
 344              	.LVL46:
 345 001a 02E0     		b	.L18
 346              	.LVL47:
 347              	.L21:
 348              		.loc 1 712 0
 349 001c 0020     		movs	r0, #0
 350              	.LVL48:
 351 001e 00E0     		b	.L18
 352              	.LVL49:
 353              	.L22:
 707:..\..\FatFS-master\source/ff.c **** 		if (c >= DbcTbl[2] && c <= DbcTbl[3]) return 1;
 354              		.loc 1 707 0
 355 0020 0120     		movs	r0, #1
 356              	.LVL50:
 357              	.L18:
 713:..\..\FatFS-master\source/ff.c **** }
 358              		.loc 1 713 0
 359              		@ sp needed
 360 0022 7047     		bx	lr
 361              		.cfi_endproc
 362              	.LFE8:
 363              		.size	dbc_1st, .-dbc_1st
 364              		.section	.text.dbc_2nd,"ax",%progbits
 365              		.align	2
ARM GAS  C:\Users\NUSAIR~1\AppData\Local\Temp\ccFqg92r.s 			page 20


 366              		.code	16
 367              		.thumb_func
 368              		.type	dbc_2nd, %function
 369              	dbc_2nd:
 370              	.LFB9:
 714:..\..\FatFS-master\source/ff.c **** 
 715:..\..\FatFS-master\source/ff.c **** 
 716:..\..\FatFS-master\source/ff.c **** /* Test if the character is DBC 2nd byte */
 717:..\..\FatFS-master\source/ff.c **** static
 718:..\..\FatFS-master\source/ff.c **** int dbc_2nd (BYTE c)
 719:..\..\FatFS-master\source/ff.c **** {
 371              		.loc 1 719 0
 372              		.cfi_startproc
 373              		@ args = 0, pretend = 0, frame = 0
 374              		@ frame_needed = 0, uses_anonymous_args = 0
 375              		@ link register save eliminated.
 376              	.LVL51:
 720:..\..\FatFS-master\source/ff.c **** #if FF_CODE_PAGE == 0		/* Variable code page */
 721:..\..\FatFS-master\source/ff.c **** 	if (DbcTbl && c >= DbcTbl[4]) {
 722:..\..\FatFS-master\source/ff.c **** 		if (c <= DbcTbl[5]) return 1;					/* 2nd byte range 1 */
 723:..\..\FatFS-master\source/ff.c **** 		if (c >= DbcTbl[6] && c <= DbcTbl[7]) return 1;	/* 2nd byte range 2 */
 724:..\..\FatFS-master\source/ff.c **** 		if (c >= DbcTbl[8] && c <= DbcTbl[9]) return 1;	/* 2nd byte range 3 */
 725:..\..\FatFS-master\source/ff.c **** 	}
 726:..\..\FatFS-master\source/ff.c **** #elif FF_CODE_PAGE >= 900	/* DBCS fixed code page */
 727:..\..\FatFS-master\source/ff.c **** 	if (c >= DbcTbl[4]) {
 377              		.loc 1 727 0
 378 0000 3F28     		cmp	r0, #63
 379 0002 09D9     		bls	.L26
 728:..\..\FatFS-master\source/ff.c **** 		if (c <= DbcTbl[5]) return 1;
 380              		.loc 1 728 0
 381 0004 7E28     		cmp	r0, #126
 382 0006 09D9     		bls	.L27
 729:..\..\FatFS-master\source/ff.c **** 		if (c >= DbcTbl[6] && c <= DbcTbl[7]) return 1;
 383              		.loc 1 729 0
 384 0008 8028     		cmp	r0, #128
 385 000a 01D3     		bcc	.L25
 386              		.loc 1 729 0 is_stmt 0 discriminator 1
 387 000c FC28     		cmp	r0, #252
 388 000e 07D9     		bls	.L28
 389              	.L25:
 730:..\..\FatFS-master\source/ff.c **** 		if (c >= DbcTbl[8] && c <= DbcTbl[9]) return 1;
 390              		.loc 1 730 0 is_stmt 1 discriminator 1
 391 0010 0028     		cmp	r0, #0
 392 0012 07D0     		beq	.L29
 731:..\..\FatFS-master\source/ff.c **** 	}
 732:..\..\FatFS-master\source/ff.c **** #else						/* SBCS fixed code page */
 733:..\..\FatFS-master\source/ff.c **** 	if (c != 0) return 0;	/* Always false */
 734:..\..\FatFS-master\source/ff.c **** #endif
 735:..\..\FatFS-master\source/ff.c **** 	return 0;
 393              		.loc 1 735 0
 394 0014 0020     		movs	r0, #0
 395              	.LVL52:
 396 0016 06E0     		b	.L24
 397              	.LVL53:
 398              	.L26:
 399 0018 0020     		movs	r0, #0
 400              	.LVL54:
ARM GAS  C:\Users\NUSAIR~1\AppData\Local\Temp\ccFqg92r.s 			page 21


 401 001a 04E0     		b	.L24
 402              	.LVL55:
 403              	.L27:
 728:..\..\FatFS-master\source/ff.c **** 		if (c >= DbcTbl[6] && c <= DbcTbl[7]) return 1;
 404              		.loc 1 728 0
 405 001c 0120     		movs	r0, #1
 406              	.LVL56:
 407 001e 02E0     		b	.L24
 408              	.LVL57:
 409              	.L28:
 729:..\..\FatFS-master\source/ff.c **** 		if (c >= DbcTbl[8] && c <= DbcTbl[9]) return 1;
 410              		.loc 1 729 0
 411 0020 0120     		movs	r0, #1
 412              	.LVL58:
 413 0022 00E0     		b	.L24
 414              	.LVL59:
 415              	.L29:
 730:..\..\FatFS-master\source/ff.c **** 	}
 416              		.loc 1 730 0
 417 0024 0120     		movs	r0, #1
 418              	.LVL60:
 419              	.L24:
 736:..\..\FatFS-master\source/ff.c **** }
 420              		.loc 1 736 0
 421              		@ sp needed
 422 0026 7047     		bx	lr
 423              		.cfi_endproc
 424              	.LFE9:
 425              		.size	dbc_2nd, .-dbc_2nd
 426              		.section	.text.clst2sect,"ax",%progbits
 427              		.align	2
 428              		.code	16
 429              		.thumb_func
 430              		.type	clst2sect, %function
 431              	clst2sect:
 432              	.LFB13:
 737:..\..\FatFS-master\source/ff.c **** 
 738:..\..\FatFS-master\source/ff.c **** 
 739:..\..\FatFS-master\source/ff.c **** #if FF_USE_LFN
 740:..\..\FatFS-master\source/ff.c **** 
 741:..\..\FatFS-master\source/ff.c **** /* Get a character from TCHAR string in defined API encodeing */
 742:..\..\FatFS-master\source/ff.c **** static
 743:..\..\FatFS-master\source/ff.c **** DWORD tchar2uni (		/* Returns character in UTF-16 encoding (>=0x10000 on double encoding unit, 0xFF
 744:..\..\FatFS-master\source/ff.c **** 	const TCHAR** str	/* Pointer to pointer to TCHAR string in configured encoding */
 745:..\..\FatFS-master\source/ff.c **** )
 746:..\..\FatFS-master\source/ff.c **** {
 747:..\..\FatFS-master\source/ff.c **** 	DWORD uc;
 748:..\..\FatFS-master\source/ff.c **** 	const TCHAR *p = *str;
 749:..\..\FatFS-master\source/ff.c **** 
 750:..\..\FatFS-master\source/ff.c **** #if FF_LFN_UNICODE == 1		/* UTF-16 input */
 751:..\..\FatFS-master\source/ff.c **** 	WCHAR wc;
 752:..\..\FatFS-master\source/ff.c **** 
 753:..\..\FatFS-master\source/ff.c **** 	uc = *p++;
 754:..\..\FatFS-master\source/ff.c **** 	if (IsSurrogate(uc)) {	/* Surrogate? */
 755:..\..\FatFS-master\source/ff.c **** 		wc = *p++;		/* Get low surrogate */
 756:..\..\FatFS-master\source/ff.c **** 		if (!IsSurrogateH(uc) || !IsSurrogateL(wc)) return 0xFFFFFFFF;	/* Wrong surrogate? */
 757:..\..\FatFS-master\source/ff.c **** 		uc = uc << 16 | wc;
ARM GAS  C:\Users\NUSAIR~1\AppData\Local\Temp\ccFqg92r.s 			page 22


 758:..\..\FatFS-master\source/ff.c **** 	}
 759:..\..\FatFS-master\source/ff.c **** 
 760:..\..\FatFS-master\source/ff.c **** #elif FF_LFN_UNICODE == 2	/* UTF-8 input */
 761:..\..\FatFS-master\source/ff.c **** 	BYTE b;
 762:..\..\FatFS-master\source/ff.c **** 	int nf;
 763:..\..\FatFS-master\source/ff.c **** 
 764:..\..\FatFS-master\source/ff.c **** 	uc = (BYTE)*p++;	/* Get a byte */
 765:..\..\FatFS-master\source/ff.c **** 	if (uc & 0x80) {	/* Multiple byte code? */
 766:..\..\FatFS-master\source/ff.c **** 		if ((uc & 0xE0) == 0xC0) {	/* 2-byte sequence? */
 767:..\..\FatFS-master\source/ff.c **** 			uc &= 0x1F; nf = 1;
 768:..\..\FatFS-master\source/ff.c **** 		} else {
 769:..\..\FatFS-master\source/ff.c **** 			if ((uc & 0xF0) == 0xE0) {	/* 3-byte sequence? */
 770:..\..\FatFS-master\source/ff.c **** 				uc &= 0x0F; nf = 2;
 771:..\..\FatFS-master\source/ff.c **** 			} else {
 772:..\..\FatFS-master\source/ff.c **** 				if ((uc & 0xF8) == 0xF0) {	/* 4-byte sequence? */
 773:..\..\FatFS-master\source/ff.c **** 					uc &= 0x07; nf = 3;
 774:..\..\FatFS-master\source/ff.c **** 				} else {					/* Wrong sequence */
 775:..\..\FatFS-master\source/ff.c **** 					return 0xFFFFFFFF;
 776:..\..\FatFS-master\source/ff.c **** 				}
 777:..\..\FatFS-master\source/ff.c **** 			}
 778:..\..\FatFS-master\source/ff.c **** 		}
 779:..\..\FatFS-master\source/ff.c **** 		do {	/* Get trailing bytes */
 780:..\..\FatFS-master\source/ff.c **** 			b = (BYTE)*p++;
 781:..\..\FatFS-master\source/ff.c **** 			if ((b & 0xC0) != 0x80) return 0xFFFFFFFF;	/* Wrong sequence? */
 782:..\..\FatFS-master\source/ff.c **** 			uc = uc << 6 | (b & 0x3F);
 783:..\..\FatFS-master\source/ff.c **** 		} while (--nf != 0);
 784:..\..\FatFS-master\source/ff.c **** 		if (uc < 0x80 || IsSurrogate(uc) || uc >= 0x110000) return 0xFFFFFFFF;	/* Wrong code? */
 785:..\..\FatFS-master\source/ff.c **** 		if (uc >= 0x10000) uc = 0xD800DC00 | ((uc - 0x10000) << 6 & 0x3FF0000) | (uc & 0x3FF);	/* Make a 
 786:..\..\FatFS-master\source/ff.c **** 	}
 787:..\..\FatFS-master\source/ff.c **** 
 788:..\..\FatFS-master\source/ff.c **** #else		/* ANSI/OEM input */
 789:..\..\FatFS-master\source/ff.c **** 	BYTE b;
 790:..\..\FatFS-master\source/ff.c **** 	WCHAR wc;
 791:..\..\FatFS-master\source/ff.c **** 
 792:..\..\FatFS-master\source/ff.c **** 	wc = (BYTE)*p++;			/* Get a byte */
 793:..\..\FatFS-master\source/ff.c **** 	if (dbc_1st((BYTE)wc)) {	/* Is it a DBC 1st byte? */
 794:..\..\FatFS-master\source/ff.c **** 		b = (BYTE)*p++;			/* Get 2nd byte */
 795:..\..\FatFS-master\source/ff.c **** 		if (!dbc_2nd(b)) return 0xFFFFFFFF;	/* Invalid code? */
 796:..\..\FatFS-master\source/ff.c **** 		wc = (wc << 8) + b;		/* Make a DBC */
 797:..\..\FatFS-master\source/ff.c **** 	}
 798:..\..\FatFS-master\source/ff.c **** 	if (wc != 0) {
 799:..\..\FatFS-master\source/ff.c **** 		wc = ff_oem2uni(wc, CODEPAGE);	/* ANSI/OEM ==> Unicode */
 800:..\..\FatFS-master\source/ff.c **** 		if (wc == 0) return 0xFFFFFFFF;	/* Invalid code? */
 801:..\..\FatFS-master\source/ff.c **** 	}
 802:..\..\FatFS-master\source/ff.c **** 	uc = wc;
 803:..\..\FatFS-master\source/ff.c **** 
 804:..\..\FatFS-master\source/ff.c **** #endif
 805:..\..\FatFS-master\source/ff.c **** 	*str = p;	/* Next read pointer */
 806:..\..\FatFS-master\source/ff.c **** 	return uc;
 807:..\..\FatFS-master\source/ff.c **** }
 808:..\..\FatFS-master\source/ff.c **** 
 809:..\..\FatFS-master\source/ff.c **** 
 810:..\..\FatFS-master\source/ff.c **** /* Output a TCHAR string in defined API encoding */
 811:..\..\FatFS-master\source/ff.c **** static
 812:..\..\FatFS-master\source/ff.c **** BYTE put_utf (	/* Returns number of encoding units written (0:buffer overflow or wrong encoding) */
 813:..\..\FatFS-master\source/ff.c **** 	DWORD chr,	/* UTF-16 encoded character (Double encoding unit char if >=0x10000) */
 814:..\..\FatFS-master\source/ff.c **** 	TCHAR* buf,	/* Output buffer */
ARM GAS  C:\Users\NUSAIR~1\AppData\Local\Temp\ccFqg92r.s 			page 23


 815:..\..\FatFS-master\source/ff.c **** 	UINT szb	/* Size of the buffer */
 816:..\..\FatFS-master\source/ff.c **** )
 817:..\..\FatFS-master\source/ff.c **** {
 818:..\..\FatFS-master\source/ff.c **** #if FF_LFN_UNICODE == 1	/* UTF-16 output */
 819:..\..\FatFS-master\source/ff.c **** 	WCHAR hs, wc;
 820:..\..\FatFS-master\source/ff.c **** 
 821:..\..\FatFS-master\source/ff.c **** 	hs = (WCHAR)(chr >> 16);
 822:..\..\FatFS-master\source/ff.c **** 	wc = (WCHAR)chr;
 823:..\..\FatFS-master\source/ff.c **** 	if (hs == 0) {	/* Single encoding unit? */
 824:..\..\FatFS-master\source/ff.c **** 		if (szb < 1 || IsSurrogate(wc)) return 0;	/* Buffer overflow or wrong code? */
 825:..\..\FatFS-master\source/ff.c **** 		*buf = wc;
 826:..\..\FatFS-master\source/ff.c **** 		return 1;
 827:..\..\FatFS-master\source/ff.c **** 	}
 828:..\..\FatFS-master\source/ff.c **** 	if (szb < 2 || !IsSurrogateH(hs) || !IsSurrogateL(wc)) return 0;	/* Buffer overflow or wrong surro
 829:..\..\FatFS-master\source/ff.c **** 	*buf++ = hs;
 830:..\..\FatFS-master\source/ff.c **** 	*buf++ = wc;
 831:..\..\FatFS-master\source/ff.c **** 	return 2;
 832:..\..\FatFS-master\source/ff.c **** 
 833:..\..\FatFS-master\source/ff.c **** #elif FF_LFN_UNICODE == 2	/* UTF-8 output */
 834:..\..\FatFS-master\source/ff.c **** 	DWORD hc;
 835:..\..\FatFS-master\source/ff.c **** 
 836:..\..\FatFS-master\source/ff.c **** 	if (chr < 0x80) {	/* Single byte code? */
 837:..\..\FatFS-master\source/ff.c **** 		if (szb < 1) return 0;	/* Buffer overflow? */
 838:..\..\FatFS-master\source/ff.c **** 		*buf = (TCHAR)chr;
 839:..\..\FatFS-master\source/ff.c **** 		return 1;
 840:..\..\FatFS-master\source/ff.c **** 	}
 841:..\..\FatFS-master\source/ff.c **** 	if (chr < 0x800) {	/* 2-byte sequence? */
 842:..\..\FatFS-master\source/ff.c **** 		if (szb < 2) return 0;	/* Buffer overflow? */
 843:..\..\FatFS-master\source/ff.c **** 		*buf++ = (TCHAR)(0xC0 | (chr >> 6 & 0x1F));
 844:..\..\FatFS-master\source/ff.c **** 		*buf++ = (TCHAR)(0x80 | (chr >> 0 & 0x3F));
 845:..\..\FatFS-master\source/ff.c **** 		return 2;
 846:..\..\FatFS-master\source/ff.c **** 	}
 847:..\..\FatFS-master\source/ff.c **** 	if (chr < 0x10000) {	/* 3-byte sequence? */
 848:..\..\FatFS-master\source/ff.c **** 		if (szb < 3 || IsSurrogate(chr)) return 0;	/* Buffer overflow or wrong code? */
 849:..\..\FatFS-master\source/ff.c **** 		*buf++ = (TCHAR)(0xE0 | (chr >> 12 & 0x0F));
 850:..\..\FatFS-master\source/ff.c **** 		*buf++ = (TCHAR)(0x80 | (chr >> 6 & 0x3F));
 851:..\..\FatFS-master\source/ff.c **** 		*buf++ = (TCHAR)(0x80 | (chr >> 0 & 0x3F));
 852:..\..\FatFS-master\source/ff.c **** 		return 3;
 853:..\..\FatFS-master\source/ff.c **** 	}
 854:..\..\FatFS-master\source/ff.c **** 	/* 4-byte sequence */
 855:..\..\FatFS-master\source/ff.c **** 	if (szb < 4) return 0;	/* Buffer overflow? */
 856:..\..\FatFS-master\source/ff.c **** 	hc = ((chr & 0xFFFF0000) - 0xD8000000) >> 6;	/* Get high 10 bits */
 857:..\..\FatFS-master\source/ff.c **** 	chr = (chr & 0xFFFF) - 0xDC00;					/* Get low 10 bits */
 858:..\..\FatFS-master\source/ff.c **** 	if (hc >= 0x100000 || chr >= 0x400) return 0;	/* Wrong surrogate? */
 859:..\..\FatFS-master\source/ff.c **** 	chr = (hc | chr) + 0x10000;
 860:..\..\FatFS-master\source/ff.c **** 	*buf++ = (TCHAR)(0xF0 | (chr >> 18 & 0x07));
 861:..\..\FatFS-master\source/ff.c **** 	*buf++ = (TCHAR)(0x80 | (chr >> 12 & 0x3F));
 862:..\..\FatFS-master\source/ff.c **** 	*buf++ = (TCHAR)(0x80 | (chr >> 6 & 0x3F));
 863:..\..\FatFS-master\source/ff.c **** 	*buf++ = (TCHAR)(0x80 | (chr >> 0 & 0x3F));
 864:..\..\FatFS-master\source/ff.c **** 	return 4;
 865:..\..\FatFS-master\source/ff.c **** 
 866:..\..\FatFS-master\source/ff.c **** #else						/* ANSI/OEM output */
 867:..\..\FatFS-master\source/ff.c **** 	WCHAR wc;
 868:..\..\FatFS-master\source/ff.c **** 
 869:..\..\FatFS-master\source/ff.c **** 	wc = ff_uni2oem(chr, CODEPAGE);
 870:..\..\FatFS-master\source/ff.c **** 	if (wc >= 0x100) {	/* Is this a DBC? */
 871:..\..\FatFS-master\source/ff.c **** 		if (szb < 2) return 0;
ARM GAS  C:\Users\NUSAIR~1\AppData\Local\Temp\ccFqg92r.s 			page 24


 872:..\..\FatFS-master\source/ff.c **** 		*buf++ = (char)(wc >> 8);	/* Store DBC 1st byte */
 873:..\..\FatFS-master\source/ff.c **** 		*buf++ = (TCHAR)wc;			/* Store DBC 2nd byte */
 874:..\..\FatFS-master\source/ff.c **** 		return 2;
 875:..\..\FatFS-master\source/ff.c **** 	}
 876:..\..\FatFS-master\source/ff.c **** 	if (wc == 0 || szb < 1) return 0;	/* Invalid char or buffer overflow? */
 877:..\..\FatFS-master\source/ff.c **** 	*buf++ = (TCHAR)wc;					/* Store the character */
 878:..\..\FatFS-master\source/ff.c **** 	return 1;
 879:..\..\FatFS-master\source/ff.c **** #endif
 880:..\..\FatFS-master\source/ff.c **** }
 881:..\..\FatFS-master\source/ff.c **** #endif	/* FF_USE_LFN */
 882:..\..\FatFS-master\source/ff.c **** 
 883:..\..\FatFS-master\source/ff.c **** 
 884:..\..\FatFS-master\source/ff.c **** #if FF_FS_REENTRANT
 885:..\..\FatFS-master\source/ff.c **** /*-----------------------------------------------------------------------*/
 886:..\..\FatFS-master\source/ff.c **** /* Request/Release grant to access the volume                            */
 887:..\..\FatFS-master\source/ff.c **** /*-----------------------------------------------------------------------*/
 888:..\..\FatFS-master\source/ff.c **** static
 889:..\..\FatFS-master\source/ff.c **** int lock_fs (		/* 1:Ok, 0:timeout */
 890:..\..\FatFS-master\source/ff.c **** 	FATFS* fs		/* Filesystem object */
 891:..\..\FatFS-master\source/ff.c **** )
 892:..\..\FatFS-master\source/ff.c **** {
 893:..\..\FatFS-master\source/ff.c **** 	return ff_req_grant(fs->sobj);
 894:..\..\FatFS-master\source/ff.c **** }
 895:..\..\FatFS-master\source/ff.c **** 
 896:..\..\FatFS-master\source/ff.c **** 
 897:..\..\FatFS-master\source/ff.c **** static
 898:..\..\FatFS-master\source/ff.c **** void unlock_fs (
 899:..\..\FatFS-master\source/ff.c **** 	FATFS* fs,		/* Filesystem object */
 900:..\..\FatFS-master\source/ff.c **** 	FRESULT res		/* Result code to be returned */
 901:..\..\FatFS-master\source/ff.c **** )
 902:..\..\FatFS-master\source/ff.c **** {
 903:..\..\FatFS-master\source/ff.c **** 	if (fs && res != FR_NOT_ENABLED && res != FR_INVALID_DRIVE && res != FR_TIMEOUT) {
 904:..\..\FatFS-master\source/ff.c **** 		ff_rel_grant(fs->sobj);
 905:..\..\FatFS-master\source/ff.c **** 	}
 906:..\..\FatFS-master\source/ff.c **** }
 907:..\..\FatFS-master\source/ff.c **** 
 908:..\..\FatFS-master\source/ff.c **** #endif
 909:..\..\FatFS-master\source/ff.c **** 
 910:..\..\FatFS-master\source/ff.c **** 
 911:..\..\FatFS-master\source/ff.c **** 
 912:..\..\FatFS-master\source/ff.c **** #if FF_FS_LOCK != 0
 913:..\..\FatFS-master\source/ff.c **** /*-----------------------------------------------------------------------*/
 914:..\..\FatFS-master\source/ff.c **** /* File lock control functions                                           */
 915:..\..\FatFS-master\source/ff.c **** /*-----------------------------------------------------------------------*/
 916:..\..\FatFS-master\source/ff.c **** 
 917:..\..\FatFS-master\source/ff.c **** static
 918:..\..\FatFS-master\source/ff.c **** FRESULT chk_lock (	/* Check if the file can be accessed */
 919:..\..\FatFS-master\source/ff.c **** 	DIR* dp,		/* Directory object pointing the file to be checked */
 920:..\..\FatFS-master\source/ff.c **** 	int acc			/* Desired access type (0:Read mode open, 1:Write mode open, 2:Delete or rename) */
 921:..\..\FatFS-master\source/ff.c **** )
 922:..\..\FatFS-master\source/ff.c **** {
 923:..\..\FatFS-master\source/ff.c **** 	UINT i, be;
 924:..\..\FatFS-master\source/ff.c **** 
 925:..\..\FatFS-master\source/ff.c **** 	/* Search open object table for the object */
 926:..\..\FatFS-master\source/ff.c **** 	be = 0;
 927:..\..\FatFS-master\source/ff.c **** 	for (i = 0; i < FF_FS_LOCK; i++) {
 928:..\..\FatFS-master\source/ff.c **** 		if (Files[i].fs) {	/* Existing entry */
ARM GAS  C:\Users\NUSAIR~1\AppData\Local\Temp\ccFqg92r.s 			page 25


 929:..\..\FatFS-master\source/ff.c **** 			if (Files[i].fs == dp->obj.fs &&	 	/* Check if the object matches with an open object */
 930:..\..\FatFS-master\source/ff.c **** 				Files[i].clu == dp->obj.sclust &&
 931:..\..\FatFS-master\source/ff.c **** 				Files[i].ofs == dp->dptr) break;
 932:..\..\FatFS-master\source/ff.c **** 		} else {			/* Blank entry */
 933:..\..\FatFS-master\source/ff.c **** 			be = 1;
 934:..\..\FatFS-master\source/ff.c **** 		}
 935:..\..\FatFS-master\source/ff.c **** 	}
 936:..\..\FatFS-master\source/ff.c **** 	if (i == FF_FS_LOCK) {	/* The object has not been opened */
 937:..\..\FatFS-master\source/ff.c **** 		return (!be && acc != 2) ? FR_TOO_MANY_OPEN_FILES : FR_OK;	/* Is there a blank entry for new obje
 938:..\..\FatFS-master\source/ff.c **** 	}
 939:..\..\FatFS-master\source/ff.c **** 
 940:..\..\FatFS-master\source/ff.c **** 	/* The object was opened. Reject any open against writing file and all write mode open */
 941:..\..\FatFS-master\source/ff.c **** 	return (acc != 0 || Files[i].ctr == 0x100) ? FR_LOCKED : FR_OK;
 942:..\..\FatFS-master\source/ff.c **** }
 943:..\..\FatFS-master\source/ff.c **** 
 944:..\..\FatFS-master\source/ff.c **** 
 945:..\..\FatFS-master\source/ff.c **** static
 946:..\..\FatFS-master\source/ff.c **** int enq_lock (void)	/* Check if an entry is available for a new object */
 947:..\..\FatFS-master\source/ff.c **** {
 948:..\..\FatFS-master\source/ff.c **** 	UINT i;
 949:..\..\FatFS-master\source/ff.c **** 
 950:..\..\FatFS-master\source/ff.c **** 	for (i = 0; i < FF_FS_LOCK && Files[i].fs; i++) ;
 951:..\..\FatFS-master\source/ff.c **** 	return (i == FF_FS_LOCK) ? 0 : 1;
 952:..\..\FatFS-master\source/ff.c **** }
 953:..\..\FatFS-master\source/ff.c **** 
 954:..\..\FatFS-master\source/ff.c **** 
 955:..\..\FatFS-master\source/ff.c **** static
 956:..\..\FatFS-master\source/ff.c **** UINT inc_lock (	/* Increment object open counter and returns its index (0:Internal error) */
 957:..\..\FatFS-master\source/ff.c **** 	DIR* dp,	/* Directory object pointing the file to register or increment */
 958:..\..\FatFS-master\source/ff.c **** 	int acc		/* Desired access (0:Read, 1:Write, 2:Delete/Rename) */
 959:..\..\FatFS-master\source/ff.c **** )
 960:..\..\FatFS-master\source/ff.c **** {
 961:..\..\FatFS-master\source/ff.c **** 	UINT i;
 962:..\..\FatFS-master\source/ff.c **** 
 963:..\..\FatFS-master\source/ff.c **** 
 964:..\..\FatFS-master\source/ff.c **** 	for (i = 0; i < FF_FS_LOCK; i++) {	/* Find the object */
 965:..\..\FatFS-master\source/ff.c **** 		if (Files[i].fs == dp->obj.fs &&
 966:..\..\FatFS-master\source/ff.c **** 			Files[i].clu == dp->obj.sclust &&
 967:..\..\FatFS-master\source/ff.c **** 			Files[i].ofs == dp->dptr) break;
 968:..\..\FatFS-master\source/ff.c **** 	}
 969:..\..\FatFS-master\source/ff.c **** 
 970:..\..\FatFS-master\source/ff.c **** 	if (i == FF_FS_LOCK) {				/* Not opened. Register it as new. */
 971:..\..\FatFS-master\source/ff.c **** 		for (i = 0; i < FF_FS_LOCK && Files[i].fs; i++) ;
 972:..\..\FatFS-master\source/ff.c **** 		if (i == FF_FS_LOCK) return 0;	/* No free entry to register (int err) */
 973:..\..\FatFS-master\source/ff.c **** 		Files[i].fs = dp->obj.fs;
 974:..\..\FatFS-master\source/ff.c **** 		Files[i].clu = dp->obj.sclust;
 975:..\..\FatFS-master\source/ff.c **** 		Files[i].ofs = dp->dptr;
 976:..\..\FatFS-master\source/ff.c **** 		Files[i].ctr = 0;
 977:..\..\FatFS-master\source/ff.c **** 	}
 978:..\..\FatFS-master\source/ff.c **** 
 979:..\..\FatFS-master\source/ff.c **** 	if (acc >= 1 && Files[i].ctr) return 0;	/* Access violation (int err) */
 980:..\..\FatFS-master\source/ff.c **** 
 981:..\..\FatFS-master\source/ff.c **** 	Files[i].ctr = acc ? 0x100 : Files[i].ctr + 1;	/* Set semaphore value */
 982:..\..\FatFS-master\source/ff.c **** 
 983:..\..\FatFS-master\source/ff.c **** 	return i + 1;	/* Index number origin from 1 */
 984:..\..\FatFS-master\source/ff.c **** }
 985:..\..\FatFS-master\source/ff.c **** 
ARM GAS  C:\Users\NUSAIR~1\AppData\Local\Temp\ccFqg92r.s 			page 26


 986:..\..\FatFS-master\source/ff.c **** 
 987:..\..\FatFS-master\source/ff.c **** static
 988:..\..\FatFS-master\source/ff.c **** FRESULT dec_lock (	/* Decrement object open counter */
 989:..\..\FatFS-master\source/ff.c **** 	UINT i			/* Semaphore index (1..) */
 990:..\..\FatFS-master\source/ff.c **** )
 991:..\..\FatFS-master\source/ff.c **** {
 992:..\..\FatFS-master\source/ff.c **** 	WORD n;
 993:..\..\FatFS-master\source/ff.c **** 	FRESULT res;
 994:..\..\FatFS-master\source/ff.c **** 
 995:..\..\FatFS-master\source/ff.c **** 
 996:..\..\FatFS-master\source/ff.c **** 	if (--i < FF_FS_LOCK) {	/* Index number origin from 0 */
 997:..\..\FatFS-master\source/ff.c **** 		n = Files[i].ctr;
 998:..\..\FatFS-master\source/ff.c **** 		if (n == 0x100) n = 0;		/* If write mode open, delete the entry */
 999:..\..\FatFS-master\source/ff.c **** 		if (n > 0) n--;				/* Decrement read mode open count */
1000:..\..\FatFS-master\source/ff.c **** 		Files[i].ctr = n;
1001:..\..\FatFS-master\source/ff.c **** 		if (n == 0) Files[i].fs = 0;	/* Delete the entry if open count gets zero */
1002:..\..\FatFS-master\source/ff.c **** 		res = FR_OK;
1003:..\..\FatFS-master\source/ff.c **** 	} else {
1004:..\..\FatFS-master\source/ff.c **** 		res = FR_INT_ERR;			/* Invalid index nunber */
1005:..\..\FatFS-master\source/ff.c **** 	}
1006:..\..\FatFS-master\source/ff.c **** 	return res;
1007:..\..\FatFS-master\source/ff.c **** }
1008:..\..\FatFS-master\source/ff.c **** 
1009:..\..\FatFS-master\source/ff.c **** 
1010:..\..\FatFS-master\source/ff.c **** static
1011:..\..\FatFS-master\source/ff.c **** void clear_lock (	/* Clear lock entries of the volume */
1012:..\..\FatFS-master\source/ff.c **** 	FATFS *fs
1013:..\..\FatFS-master\source/ff.c **** )
1014:..\..\FatFS-master\source/ff.c **** {
1015:..\..\FatFS-master\source/ff.c **** 	UINT i;
1016:..\..\FatFS-master\source/ff.c **** 
1017:..\..\FatFS-master\source/ff.c **** 	for (i = 0; i < FF_FS_LOCK; i++) {
1018:..\..\FatFS-master\source/ff.c **** 		if (Files[i].fs == fs) Files[i].fs = 0;
1019:..\..\FatFS-master\source/ff.c **** 	}
1020:..\..\FatFS-master\source/ff.c **** }
1021:..\..\FatFS-master\source/ff.c **** 
1022:..\..\FatFS-master\source/ff.c **** #endif	/* FF_FS_LOCK != 0 */
1023:..\..\FatFS-master\source/ff.c **** 
1024:..\..\FatFS-master\source/ff.c **** 
1025:..\..\FatFS-master\source/ff.c **** 
1026:..\..\FatFS-master\source/ff.c **** /*-----------------------------------------------------------------------*/
1027:..\..\FatFS-master\source/ff.c **** /* Move/Flush disk access window in the filesystem object                */
1028:..\..\FatFS-master\source/ff.c **** /*-----------------------------------------------------------------------*/
1029:..\..\FatFS-master\source/ff.c **** #if !FF_FS_READONLY
1030:..\..\FatFS-master\source/ff.c **** static
1031:..\..\FatFS-master\source/ff.c **** FRESULT sync_window (	/* Returns FR_OK or FR_DISK_ERR */
1032:..\..\FatFS-master\source/ff.c **** 	FATFS* fs			/* Filesystem object */
1033:..\..\FatFS-master\source/ff.c **** )
1034:..\..\FatFS-master\source/ff.c **** {
1035:..\..\FatFS-master\source/ff.c **** 	FRESULT res = FR_OK;
1036:..\..\FatFS-master\source/ff.c **** 
1037:..\..\FatFS-master\source/ff.c **** 
1038:..\..\FatFS-master\source/ff.c **** 	if (fs->wflag) {	/* Is the disk access window dirty */
1039:..\..\FatFS-master\source/ff.c **** 		if (disk_write(fs->pdrv, fs->win, fs->winsect, 1) == RES_OK) {	/* Write back the window */
1040:..\..\FatFS-master\source/ff.c **** 			fs->wflag = 0;	/* Clear window dirty flag */
1041:..\..\FatFS-master\source/ff.c **** 			if (fs->winsect - fs->fatbase < fs->fsize) {	/* Is it in the 1st FAT? */
1042:..\..\FatFS-master\source/ff.c **** 				if (fs->n_fats == 2) disk_write(fs->pdrv, fs->win, fs->winsect + fs->fsize, 1);	/* Reflect it t
ARM GAS  C:\Users\NUSAIR~1\AppData\Local\Temp\ccFqg92r.s 			page 27


1043:..\..\FatFS-master\source/ff.c **** 			}
1044:..\..\FatFS-master\source/ff.c **** 		} else {
1045:..\..\FatFS-master\source/ff.c **** 			res = FR_DISK_ERR;
1046:..\..\FatFS-master\source/ff.c **** 		}
1047:..\..\FatFS-master\source/ff.c **** 	}
1048:..\..\FatFS-master\source/ff.c **** 	return res;
1049:..\..\FatFS-master\source/ff.c **** }
1050:..\..\FatFS-master\source/ff.c **** #endif
1051:..\..\FatFS-master\source/ff.c **** 
1052:..\..\FatFS-master\source/ff.c **** 
1053:..\..\FatFS-master\source/ff.c **** static
1054:..\..\FatFS-master\source/ff.c **** FRESULT move_window (	/* Returns FR_OK or FR_DISK_ERR */
1055:..\..\FatFS-master\source/ff.c **** 	FATFS* fs,			/* Filesystem object */
1056:..\..\FatFS-master\source/ff.c **** 	DWORD sector		/* Sector number to make appearance in the fs->win[] */
1057:..\..\FatFS-master\source/ff.c **** )
1058:..\..\FatFS-master\source/ff.c **** {
1059:..\..\FatFS-master\source/ff.c **** 	FRESULT res = FR_OK;
1060:..\..\FatFS-master\source/ff.c **** 
1061:..\..\FatFS-master\source/ff.c **** 
1062:..\..\FatFS-master\source/ff.c **** 	if (sector != fs->winsect) {	/* Window offset changed? */
1063:..\..\FatFS-master\source/ff.c **** #if !FF_FS_READONLY
1064:..\..\FatFS-master\source/ff.c **** 		res = sync_window(fs);		/* Write-back changes */
1065:..\..\FatFS-master\source/ff.c **** #endif
1066:..\..\FatFS-master\source/ff.c **** 		if (res == FR_OK) {			/* Fill sector window with new data */
1067:..\..\FatFS-master\source/ff.c **** 			if (disk_read(fs->pdrv, fs->win, sector, 1) != RES_OK) {
1068:..\..\FatFS-master\source/ff.c **** 				sector = 0xFFFFFFFF;	/* Invalidate window if read data is not valid */
1069:..\..\FatFS-master\source/ff.c **** 				res = FR_DISK_ERR;
1070:..\..\FatFS-master\source/ff.c **** 			}
1071:..\..\FatFS-master\source/ff.c **** 			fs->winsect = sector;
1072:..\..\FatFS-master\source/ff.c **** 		}
1073:..\..\FatFS-master\source/ff.c **** 	}
1074:..\..\FatFS-master\source/ff.c **** 	return res;
1075:..\..\FatFS-master\source/ff.c **** }
1076:..\..\FatFS-master\source/ff.c **** 
1077:..\..\FatFS-master\source/ff.c **** 
1078:..\..\FatFS-master\source/ff.c **** 
1079:..\..\FatFS-master\source/ff.c **** 
1080:..\..\FatFS-master\source/ff.c **** #if !FF_FS_READONLY
1081:..\..\FatFS-master\source/ff.c **** /*-----------------------------------------------------------------------*/
1082:..\..\FatFS-master\source/ff.c **** /* Synchronize filesystem and data on the storage                        */
1083:..\..\FatFS-master\source/ff.c **** /*-----------------------------------------------------------------------*/
1084:..\..\FatFS-master\source/ff.c **** 
1085:..\..\FatFS-master\source/ff.c **** static
1086:..\..\FatFS-master\source/ff.c **** FRESULT sync_fs (	/* Returns FR_OK or FR_DISK_ERR */
1087:..\..\FatFS-master\source/ff.c **** 	FATFS* fs		/* Filesystem object */
1088:..\..\FatFS-master\source/ff.c **** )
1089:..\..\FatFS-master\source/ff.c **** {
1090:..\..\FatFS-master\source/ff.c **** 	FRESULT res;
1091:..\..\FatFS-master\source/ff.c **** 
1092:..\..\FatFS-master\source/ff.c **** 
1093:..\..\FatFS-master\source/ff.c **** 	res = sync_window(fs);
1094:..\..\FatFS-master\source/ff.c **** 	if (res == FR_OK) {
1095:..\..\FatFS-master\source/ff.c **** 		if (fs->fs_type == FS_FAT32 && fs->fsi_flag == 1) {	/* FAT32: Update FSInfo sector if needed */
1096:..\..\FatFS-master\source/ff.c **** 			/* Create FSInfo structure */
1097:..\..\FatFS-master\source/ff.c **** 			mem_set(fs->win, 0, SS(fs));
1098:..\..\FatFS-master\source/ff.c **** 			st_word(fs->win + BS_55AA, 0xAA55);
1099:..\..\FatFS-master\source/ff.c **** 			st_dword(fs->win + FSI_LeadSig, 0x41615252);
ARM GAS  C:\Users\NUSAIR~1\AppData\Local\Temp\ccFqg92r.s 			page 28


1100:..\..\FatFS-master\source/ff.c **** 			st_dword(fs->win + FSI_StrucSig, 0x61417272);
1101:..\..\FatFS-master\source/ff.c **** 			st_dword(fs->win + FSI_Free_Count, fs->free_clst);
1102:..\..\FatFS-master\source/ff.c **** 			st_dword(fs->win + FSI_Nxt_Free, fs->last_clst);
1103:..\..\FatFS-master\source/ff.c **** 			/* Write it into the FSInfo sector */
1104:..\..\FatFS-master\source/ff.c **** 			fs->winsect = fs->volbase + 1;
1105:..\..\FatFS-master\source/ff.c **** 			disk_write(fs->pdrv, fs->win, fs->winsect, 1);
1106:..\..\FatFS-master\source/ff.c **** 			fs->fsi_flag = 0;
1107:..\..\FatFS-master\source/ff.c **** 		}
1108:..\..\FatFS-master\source/ff.c **** 		/* Make sure that no pending write process in the lower layer */
1109:..\..\FatFS-master\source/ff.c **** 		if (disk_ioctl(fs->pdrv, CTRL_SYNC, 0) != RES_OK) res = FR_DISK_ERR;
1110:..\..\FatFS-master\source/ff.c **** 	}
1111:..\..\FatFS-master\source/ff.c **** 
1112:..\..\FatFS-master\source/ff.c **** 	return res;
1113:..\..\FatFS-master\source/ff.c **** }
1114:..\..\FatFS-master\source/ff.c **** 
1115:..\..\FatFS-master\source/ff.c **** #endif
1116:..\..\FatFS-master\source/ff.c **** 
1117:..\..\FatFS-master\source/ff.c **** 
1118:..\..\FatFS-master\source/ff.c **** 
1119:..\..\FatFS-master\source/ff.c **** /*-----------------------------------------------------------------------*/
1120:..\..\FatFS-master\source/ff.c **** /* Get physical sector number from cluster number                        */
1121:..\..\FatFS-master\source/ff.c **** /*-----------------------------------------------------------------------*/
1122:..\..\FatFS-master\source/ff.c **** 
1123:..\..\FatFS-master\source/ff.c **** static
1124:..\..\FatFS-master\source/ff.c **** DWORD clst2sect (	/* !=0:Sector number, 0:Failed (invalid cluster#) */
1125:..\..\FatFS-master\source/ff.c **** 	FATFS* fs,		/* Filesystem object */
1126:..\..\FatFS-master\source/ff.c **** 	DWORD clst		/* Cluster# to be converted */
1127:..\..\FatFS-master\source/ff.c **** )
1128:..\..\FatFS-master\source/ff.c **** {
 433              		.loc 1 1128 0
 434              		.cfi_startproc
 435              		@ args = 0, pretend = 0, frame = 0
 436              		@ frame_needed = 0, uses_anonymous_args = 0
 437              		@ link register save eliminated.
 438              	.LVL61:
1129:..\..\FatFS-master\source/ff.c **** 	clst -= 2;		/* Cluster number is origin from 2 */
 439              		.loc 1 1129 0
 440 0000 0239     		subs	r1, r1, #2
 441              	.LVL62:
1130:..\..\FatFS-master\source/ff.c **** 	if (clst >= fs->n_fatent - 2) return 0;		/* Is it invalid cluster number? */
 442              		.loc 1 1130 0
 443 0002 4369     		ldr	r3, [r0, #20]
 444 0004 023B     		subs	r3, r3, #2
 445 0006 9942     		cmp	r1, r3
 446 0008 04D2     		bcs	.L32
1131:..\..\FatFS-master\source/ff.c **** 	return fs->database + fs->csize * clst;		/* Start sector number of the cluster */
 447              		.loc 1 1131 0
 448 000a 836A     		ldr	r3, [r0, #40]
 449 000c 4089     		ldrh	r0, [r0, #10]
 450              	.LVL63:
 451 000e 4143     		muls	r1, r0
 452              	.LVL64:
 453 0010 5818     		adds	r0, r3, r1
 454 0012 00E0     		b	.L31
 455              	.LVL65:
 456              	.L32:
1130:..\..\FatFS-master\source/ff.c **** 	if (clst >= fs->n_fatent - 2) return 0;		/* Is it invalid cluster number? */
ARM GAS  C:\Users\NUSAIR~1\AppData\Local\Temp\ccFqg92r.s 			page 29


 457              		.loc 1 1130 0
 458 0014 0020     		movs	r0, #0
 459              	.LVL66:
 460              	.L31:
1132:..\..\FatFS-master\source/ff.c **** }
 461              		.loc 1 1132 0
 462              		@ sp needed
 463 0016 7047     		bx	lr
 464              		.cfi_endproc
 465              	.LFE13:
 466              		.size	clst2sect, .-clst2sect
 467              		.section	.text.ld_clust,"ax",%progbits
 468              		.align	2
 469              		.code	16
 470              		.thumb_func
 471              		.type	ld_clust, %function
 472              	ld_clust:
 473              	.LFB22:
1133:..\..\FatFS-master\source/ff.c **** 
1134:..\..\FatFS-master\source/ff.c **** 
1135:..\..\FatFS-master\source/ff.c **** 
1136:..\..\FatFS-master\source/ff.c **** 
1137:..\..\FatFS-master\source/ff.c **** /*-----------------------------------------------------------------------*/
1138:..\..\FatFS-master\source/ff.c **** /* FAT access - Read value of a FAT entry                                */
1139:..\..\FatFS-master\source/ff.c **** /*-----------------------------------------------------------------------*/
1140:..\..\FatFS-master\source/ff.c **** 
1141:..\..\FatFS-master\source/ff.c **** static
1142:..\..\FatFS-master\source/ff.c **** DWORD get_fat (		/* 0xFFFFFFFF:Disk error, 1:Internal error, 2..0x7FFFFFFF:Cluster status */
1143:..\..\FatFS-master\source/ff.c **** 	FFOBJID* obj,	/* Corresponding object */
1144:..\..\FatFS-master\source/ff.c **** 	DWORD clst		/* Cluster number to get the value */
1145:..\..\FatFS-master\source/ff.c **** )
1146:..\..\FatFS-master\source/ff.c **** {
1147:..\..\FatFS-master\source/ff.c **** 	UINT wc, bc;
1148:..\..\FatFS-master\source/ff.c **** 	DWORD val;
1149:..\..\FatFS-master\source/ff.c **** 	FATFS *fs = obj->fs;
1150:..\..\FatFS-master\source/ff.c **** 
1151:..\..\FatFS-master\source/ff.c **** 
1152:..\..\FatFS-master\source/ff.c **** 	if (clst < 2 || clst >= fs->n_fatent) {	/* Check if in valid range */
1153:..\..\FatFS-master\source/ff.c **** 		val = 1;	/* Internal error */
1154:..\..\FatFS-master\source/ff.c **** 
1155:..\..\FatFS-master\source/ff.c **** 	} else {
1156:..\..\FatFS-master\source/ff.c **** 		val = 0xFFFFFFFF;	/* Default value falls on disk error */
1157:..\..\FatFS-master\source/ff.c **** 
1158:..\..\FatFS-master\source/ff.c **** 		switch (fs->fs_type) {
1159:..\..\FatFS-master\source/ff.c **** 		case FS_FAT12 :
1160:..\..\FatFS-master\source/ff.c **** 			bc = (UINT)clst; bc += bc / 2;
1161:..\..\FatFS-master\source/ff.c **** 			if (move_window(fs, fs->fatbase + (bc / SS(fs))) != FR_OK) break;
1162:..\..\FatFS-master\source/ff.c **** 			wc = fs->win[bc++ % SS(fs)];		/* Get 1st byte of the entry */
1163:..\..\FatFS-master\source/ff.c **** 			if (move_window(fs, fs->fatbase + (bc / SS(fs))) != FR_OK) break;
1164:..\..\FatFS-master\source/ff.c **** 			wc |= fs->win[bc % SS(fs)] << 8;	/* Merge 2nd byte of the entry */
1165:..\..\FatFS-master\source/ff.c **** 			val = (clst & 1) ? (wc >> 4) : (wc & 0xFFF);	/* Adjust bit position */
1166:..\..\FatFS-master\source/ff.c **** 			break;
1167:..\..\FatFS-master\source/ff.c **** 
1168:..\..\FatFS-master\source/ff.c **** 		case FS_FAT16 :
1169:..\..\FatFS-master\source/ff.c **** 			if (move_window(fs, fs->fatbase + (clst / (SS(fs) / 2))) != FR_OK) break;
1170:..\..\FatFS-master\source/ff.c **** 			val = ld_word(fs->win + clst * 2 % SS(fs));		/* Simple WORD array */
1171:..\..\FatFS-master\source/ff.c **** 			break;
ARM GAS  C:\Users\NUSAIR~1\AppData\Local\Temp\ccFqg92r.s 			page 30


1172:..\..\FatFS-master\source/ff.c **** 
1173:..\..\FatFS-master\source/ff.c **** 		case FS_FAT32 :
1174:..\..\FatFS-master\source/ff.c **** 			if (move_window(fs, fs->fatbase + (clst / (SS(fs) / 4))) != FR_OK) break;
1175:..\..\FatFS-master\source/ff.c **** 			val = ld_dword(fs->win + clst * 4 % SS(fs)) & 0x0FFFFFFF;	/* Simple DWORD array but mask out upp
1176:..\..\FatFS-master\source/ff.c **** 			break;
1177:..\..\FatFS-master\source/ff.c **** #if FF_FS_EXFAT
1178:..\..\FatFS-master\source/ff.c **** 		case FS_EXFAT :
1179:..\..\FatFS-master\source/ff.c **** 			if (obj->objsize != 0) {
1180:..\..\FatFS-master\source/ff.c **** 				DWORD cofs = clst - obj->sclust;	/* Offset from start cluster */
1181:..\..\FatFS-master\source/ff.c **** 				DWORD clen = (DWORD)((obj->objsize - 1) / SS(fs)) / fs->csize;	/* Number of clusters - 1 */
1182:..\..\FatFS-master\source/ff.c **** 
1183:..\..\FatFS-master\source/ff.c **** 				if (obj->stat == 2 && cofs <= clen) {	/* Is it a contiguous chain? */
1184:..\..\FatFS-master\source/ff.c **** 					val = (cofs == clen) ? 0x7FFFFFFF : clst + 1;	/* No data on the FAT, generate the value */
1185:..\..\FatFS-master\source/ff.c **** 					break;
1186:..\..\FatFS-master\source/ff.c **** 				}
1187:..\..\FatFS-master\source/ff.c **** 				if (obj->stat == 3 && cofs < obj->n_cont) {	/* Is it in the 1st fragment? */
1188:..\..\FatFS-master\source/ff.c **** 					val = clst + 1; 	/* Generate the value */
1189:..\..\FatFS-master\source/ff.c **** 					break;
1190:..\..\FatFS-master\source/ff.c **** 				}
1191:..\..\FatFS-master\source/ff.c **** 				if (obj->stat != 2) {	/* Get value from FAT if FAT chain is valid */
1192:..\..\FatFS-master\source/ff.c **** 					if (obj->n_frag != 0) {	/* Is it on the growing edge? */
1193:..\..\FatFS-master\source/ff.c **** 						val = 0x7FFFFFFF;	/* Generate EOC */
1194:..\..\FatFS-master\source/ff.c **** 					} else {
1195:..\..\FatFS-master\source/ff.c **** 						if (move_window(fs, fs->fatbase + (clst / (SS(fs) / 4))) != FR_OK) break;
1196:..\..\FatFS-master\source/ff.c **** 						val = ld_dword(fs->win + clst * 4 % SS(fs)) & 0x7FFFFFFF;
1197:..\..\FatFS-master\source/ff.c **** 					}
1198:..\..\FatFS-master\source/ff.c **** 					break;
1199:..\..\FatFS-master\source/ff.c **** 				}
1200:..\..\FatFS-master\source/ff.c **** 			}
1201:..\..\FatFS-master\source/ff.c **** 			/* go to default */
1202:..\..\FatFS-master\source/ff.c **** #endif
1203:..\..\FatFS-master\source/ff.c **** 		default:
1204:..\..\FatFS-master\source/ff.c **** 			val = 1;	/* Internal error */
1205:..\..\FatFS-master\source/ff.c **** 		}
1206:..\..\FatFS-master\source/ff.c **** 	}
1207:..\..\FatFS-master\source/ff.c **** 
1208:..\..\FatFS-master\source/ff.c **** 	return val;
1209:..\..\FatFS-master\source/ff.c **** }
1210:..\..\FatFS-master\source/ff.c **** 
1211:..\..\FatFS-master\source/ff.c **** 
1212:..\..\FatFS-master\source/ff.c **** 
1213:..\..\FatFS-master\source/ff.c **** 
1214:..\..\FatFS-master\source/ff.c **** #if !FF_FS_READONLY
1215:..\..\FatFS-master\source/ff.c **** /*-----------------------------------------------------------------------*/
1216:..\..\FatFS-master\source/ff.c **** /* FAT access - Change value of a FAT entry                              */
1217:..\..\FatFS-master\source/ff.c **** /*-----------------------------------------------------------------------*/
1218:..\..\FatFS-master\source/ff.c **** 
1219:..\..\FatFS-master\source/ff.c **** static
1220:..\..\FatFS-master\source/ff.c **** FRESULT put_fat (	/* FR_OK(0):succeeded, !=0:error */
1221:..\..\FatFS-master\source/ff.c **** 	FATFS* fs,		/* Corresponding filesystem object */
1222:..\..\FatFS-master\source/ff.c **** 	DWORD clst,		/* FAT index number (cluster number) to be changed */
1223:..\..\FatFS-master\source/ff.c **** 	DWORD val		/* New value to be set to the entry */
1224:..\..\FatFS-master\source/ff.c **** )
1225:..\..\FatFS-master\source/ff.c **** {
1226:..\..\FatFS-master\source/ff.c **** 	UINT bc;
1227:..\..\FatFS-master\source/ff.c **** 	BYTE *p;
1228:..\..\FatFS-master\source/ff.c **** 	FRESULT res = FR_INT_ERR;
ARM GAS  C:\Users\NUSAIR~1\AppData\Local\Temp\ccFqg92r.s 			page 31


1229:..\..\FatFS-master\source/ff.c **** 
1230:..\..\FatFS-master\source/ff.c **** 
1231:..\..\FatFS-master\source/ff.c **** 	if (clst >= 2 && clst < fs->n_fatent) {	/* Check if in valid range */
1232:..\..\FatFS-master\source/ff.c **** 		switch (fs->fs_type) {
1233:..\..\FatFS-master\source/ff.c **** 		case FS_FAT12 :
1234:..\..\FatFS-master\source/ff.c **** 			bc = (UINT)clst; bc += bc / 2;	/* bc: byte offset of the entry */
1235:..\..\FatFS-master\source/ff.c **** 			res = move_window(fs, fs->fatbase + (bc / SS(fs)));
1236:..\..\FatFS-master\source/ff.c **** 			if (res != FR_OK) break;
1237:..\..\FatFS-master\source/ff.c **** 			p = fs->win + bc++ % SS(fs);
1238:..\..\FatFS-master\source/ff.c **** 			*p = (clst & 1) ? ((*p & 0x0F) | ((BYTE)val << 4)) : (BYTE)val;		/* Put 1st byte */
1239:..\..\FatFS-master\source/ff.c **** 			fs->wflag = 1;
1240:..\..\FatFS-master\source/ff.c **** 			res = move_window(fs, fs->fatbase + (bc / SS(fs)));
1241:..\..\FatFS-master\source/ff.c **** 			if (res != FR_OK) break;
1242:..\..\FatFS-master\source/ff.c **** 			p = fs->win + bc % SS(fs);
1243:..\..\FatFS-master\source/ff.c **** 			*p = (clst & 1) ? (BYTE)(val >> 4) : ((*p & 0xF0) | ((BYTE)(val >> 8) & 0x0F));	/* Put 2nd byte 
1244:..\..\FatFS-master\source/ff.c **** 			fs->wflag = 1;
1245:..\..\FatFS-master\source/ff.c **** 			break;
1246:..\..\FatFS-master\source/ff.c **** 
1247:..\..\FatFS-master\source/ff.c **** 		case FS_FAT16 :
1248:..\..\FatFS-master\source/ff.c **** 			res = move_window(fs, fs->fatbase + (clst / (SS(fs) / 2)));
1249:..\..\FatFS-master\source/ff.c **** 			if (res != FR_OK) break;
1250:..\..\FatFS-master\source/ff.c **** 			st_word(fs->win + clst * 2 % SS(fs), (WORD)val);	/* Simple WORD array */
1251:..\..\FatFS-master\source/ff.c **** 			fs->wflag = 1;
1252:..\..\FatFS-master\source/ff.c **** 			break;
1253:..\..\FatFS-master\source/ff.c **** 
1254:..\..\FatFS-master\source/ff.c **** 		case FS_FAT32 :
1255:..\..\FatFS-master\source/ff.c **** #if FF_FS_EXFAT
1256:..\..\FatFS-master\source/ff.c **** 		case FS_EXFAT :
1257:..\..\FatFS-master\source/ff.c **** #endif
1258:..\..\FatFS-master\source/ff.c **** 			res = move_window(fs, fs->fatbase + (clst / (SS(fs) / 4)));
1259:..\..\FatFS-master\source/ff.c **** 			if (res != FR_OK) break;
1260:..\..\FatFS-master\source/ff.c **** 			if (!FF_FS_EXFAT || fs->fs_type != FS_EXFAT) {
1261:..\..\FatFS-master\source/ff.c **** 				val = (val & 0x0FFFFFFF) | (ld_dword(fs->win + clst * 4 % SS(fs)) & 0xF0000000);
1262:..\..\FatFS-master\source/ff.c **** 			}
1263:..\..\FatFS-master\source/ff.c **** 			st_dword(fs->win + clst * 4 % SS(fs), val);
1264:..\..\FatFS-master\source/ff.c **** 			fs->wflag = 1;
1265:..\..\FatFS-master\source/ff.c **** 			break;
1266:..\..\FatFS-master\source/ff.c **** 		}
1267:..\..\FatFS-master\source/ff.c **** 	}
1268:..\..\FatFS-master\source/ff.c **** 	return res;
1269:..\..\FatFS-master\source/ff.c **** }
1270:..\..\FatFS-master\source/ff.c **** 
1271:..\..\FatFS-master\source/ff.c **** #endif /* !FF_FS_READONLY */
1272:..\..\FatFS-master\source/ff.c **** 
1273:..\..\FatFS-master\source/ff.c **** 
1274:..\..\FatFS-master\source/ff.c **** 
1275:..\..\FatFS-master\source/ff.c **** 
1276:..\..\FatFS-master\source/ff.c **** #if FF_FS_EXFAT && !FF_FS_READONLY
1277:..\..\FatFS-master\source/ff.c **** /*-----------------------------------------------------------------------*/
1278:..\..\FatFS-master\source/ff.c **** /* exFAT: Accessing FAT and Allocation Bitmap                            */
1279:..\..\FatFS-master\source/ff.c **** /*-----------------------------------------------------------------------*/
1280:..\..\FatFS-master\source/ff.c **** 
1281:..\..\FatFS-master\source/ff.c **** /*--------------------------------------*/
1282:..\..\FatFS-master\source/ff.c **** /* Find a contiguous free cluster block */
1283:..\..\FatFS-master\source/ff.c **** /*--------------------------------------*/
1284:..\..\FatFS-master\source/ff.c **** 
1285:..\..\FatFS-master\source/ff.c **** static
ARM GAS  C:\Users\NUSAIR~1\AppData\Local\Temp\ccFqg92r.s 			page 32


1286:..\..\FatFS-master\source/ff.c **** DWORD find_bitmap (	/* 0:Not found, 2..:Cluster block found, 0xFFFFFFFF:Disk error */
1287:..\..\FatFS-master\source/ff.c **** 	FATFS* fs,	/* Filesystem object */
1288:..\..\FatFS-master\source/ff.c **** 	DWORD clst,	/* Cluster number to scan from */
1289:..\..\FatFS-master\source/ff.c **** 	DWORD ncl	/* Number of contiguous clusters to find (1..) */
1290:..\..\FatFS-master\source/ff.c **** )
1291:..\..\FatFS-master\source/ff.c **** {
1292:..\..\FatFS-master\source/ff.c **** 	BYTE bm, bv;
1293:..\..\FatFS-master\source/ff.c **** 	UINT i;
1294:..\..\FatFS-master\source/ff.c **** 	DWORD val, scl, ctr;
1295:..\..\FatFS-master\source/ff.c **** 
1296:..\..\FatFS-master\source/ff.c **** 
1297:..\..\FatFS-master\source/ff.c **** 	clst -= 2;	/* The first bit in the bitmap corresponds to cluster #2 */
1298:..\..\FatFS-master\source/ff.c **** 	if (clst >= fs->n_fatent - 2) clst = 0;
1299:..\..\FatFS-master\source/ff.c **** 	scl = val = clst; ctr = 0;
1300:..\..\FatFS-master\source/ff.c **** 	for (;;) {
1301:..\..\FatFS-master\source/ff.c **** 		if (move_window(fs, fs->database + val / 8 / SS(fs)) != FR_OK) return 0xFFFFFFFF;	/* (assuming bi
1302:..\..\FatFS-master\source/ff.c **** 		i = val / 8 % SS(fs); bm = 1 << (val % 8);
1303:..\..\FatFS-master\source/ff.c **** 		do {
1304:..\..\FatFS-master\source/ff.c **** 			do {
1305:..\..\FatFS-master\source/ff.c **** 				bv = fs->win[i] & bm; bm <<= 1;		/* Get bit value */
1306:..\..\FatFS-master\source/ff.c **** 				if (++val >= fs->n_fatent - 2) {	/* Next cluster (with wrap-around) */
1307:..\..\FatFS-master\source/ff.c **** 					val = 0; bm = 0; i = SS(fs);
1308:..\..\FatFS-master\source/ff.c **** 				}
1309:..\..\FatFS-master\source/ff.c **** 				if (bv == 0) {	/* Is it a free cluster? */
1310:..\..\FatFS-master\source/ff.c **** 					if (++ctr == ncl) return scl + 2;	/* Check if run length is sufficient for required */
1311:..\..\FatFS-master\source/ff.c **** 				} else {
1312:..\..\FatFS-master\source/ff.c **** 					scl = val; ctr = 0;		/* Encountered a cluster in-use, restart to scan */
1313:..\..\FatFS-master\source/ff.c **** 				}
1314:..\..\FatFS-master\source/ff.c **** 				if (val == clst) return 0;	/* All cluster scanned? */
1315:..\..\FatFS-master\source/ff.c **** 			} while (bm != 0);
1316:..\..\FatFS-master\source/ff.c **** 			bm = 1;
1317:..\..\FatFS-master\source/ff.c **** 		} while (++i < SS(fs));
1318:..\..\FatFS-master\source/ff.c **** 	}
1319:..\..\FatFS-master\source/ff.c **** }
1320:..\..\FatFS-master\source/ff.c **** 
1321:..\..\FatFS-master\source/ff.c **** 
1322:..\..\FatFS-master\source/ff.c **** /*----------------------------------------*/
1323:..\..\FatFS-master\source/ff.c **** /* Set/Clear a block of allocation bitmap */
1324:..\..\FatFS-master\source/ff.c **** /*----------------------------------------*/
1325:..\..\FatFS-master\source/ff.c **** 
1326:..\..\FatFS-master\source/ff.c **** static
1327:..\..\FatFS-master\source/ff.c **** FRESULT change_bitmap (
1328:..\..\FatFS-master\source/ff.c **** 	FATFS* fs,	/* Filesystem object */
1329:..\..\FatFS-master\source/ff.c **** 	DWORD clst,	/* Cluster number to change from */
1330:..\..\FatFS-master\source/ff.c **** 	DWORD ncl,	/* Number of clusters to be changed */
1331:..\..\FatFS-master\source/ff.c **** 	int bv		/* bit value to be set (0 or 1) */
1332:..\..\FatFS-master\source/ff.c **** )
1333:..\..\FatFS-master\source/ff.c **** {
1334:..\..\FatFS-master\source/ff.c **** 	BYTE bm;
1335:..\..\FatFS-master\source/ff.c **** 	UINT i;
1336:..\..\FatFS-master\source/ff.c **** 	DWORD sect;
1337:..\..\FatFS-master\source/ff.c **** 
1338:..\..\FatFS-master\source/ff.c **** 
1339:..\..\FatFS-master\source/ff.c **** 	clst -= 2;	/* The first bit corresponds to cluster #2 */
1340:..\..\FatFS-master\source/ff.c **** 	sect = fs->database + clst / 8 / SS(fs);	/* Sector address (assuming bitmap is located top of the 
1341:..\..\FatFS-master\source/ff.c **** 	i = clst / 8 % SS(fs);						/* Byte offset in the sector */
1342:..\..\FatFS-master\source/ff.c **** 	bm = 1 << (clst % 8);						/* Bit mask in the byte */
ARM GAS  C:\Users\NUSAIR~1\AppData\Local\Temp\ccFqg92r.s 			page 33


1343:..\..\FatFS-master\source/ff.c **** 	for (;;) {
1344:..\..\FatFS-master\source/ff.c **** 		if (move_window(fs, sect++) != FR_OK) return FR_DISK_ERR;
1345:..\..\FatFS-master\source/ff.c **** 		do {
1346:..\..\FatFS-master\source/ff.c **** 			do {
1347:..\..\FatFS-master\source/ff.c **** 				if (bv == (int)((fs->win[i] & bm) != 0)) return FR_INT_ERR;	/* Is the bit expected value? */
1348:..\..\FatFS-master\source/ff.c **** 				fs->win[i] ^= bm;	/* Flip the bit */
1349:..\..\FatFS-master\source/ff.c **** 				fs->wflag = 1;
1350:..\..\FatFS-master\source/ff.c **** 				if (--ncl == 0) return FR_OK;	/* All bits processed? */
1351:..\..\FatFS-master\source/ff.c **** 			} while (bm <<= 1);		/* Next bit */
1352:..\..\FatFS-master\source/ff.c **** 			bm = 1;
1353:..\..\FatFS-master\source/ff.c **** 		} while (++i < SS(fs));		/* Next byte */
1354:..\..\FatFS-master\source/ff.c **** 		i = 0;
1355:..\..\FatFS-master\source/ff.c **** 	}
1356:..\..\FatFS-master\source/ff.c **** }
1357:..\..\FatFS-master\source/ff.c **** 
1358:..\..\FatFS-master\source/ff.c **** 
1359:..\..\FatFS-master\source/ff.c **** /*---------------------------------------------*/
1360:..\..\FatFS-master\source/ff.c **** /* Fill the first fragment of the FAT chain    */
1361:..\..\FatFS-master\source/ff.c **** /*---------------------------------------------*/
1362:..\..\FatFS-master\source/ff.c **** 
1363:..\..\FatFS-master\source/ff.c **** static
1364:..\..\FatFS-master\source/ff.c **** FRESULT fill_first_frag (
1365:..\..\FatFS-master\source/ff.c **** 	FFOBJID* obj	/* Pointer to the corresponding object */
1366:..\..\FatFS-master\source/ff.c **** )
1367:..\..\FatFS-master\source/ff.c **** {
1368:..\..\FatFS-master\source/ff.c **** 	FRESULT res;
1369:..\..\FatFS-master\source/ff.c **** 	DWORD cl, n;
1370:..\..\FatFS-master\source/ff.c **** 
1371:..\..\FatFS-master\source/ff.c **** 
1372:..\..\FatFS-master\source/ff.c **** 	if (obj->stat == 3) {	/* Has the object been changed 'fragmented' in this session? */
1373:..\..\FatFS-master\source/ff.c **** 		for (cl = obj->sclust, n = obj->n_cont; n; cl++, n--) {	/* Create cluster chain on the FAT */
1374:..\..\FatFS-master\source/ff.c **** 			res = put_fat(obj->fs, cl, cl + 1);
1375:..\..\FatFS-master\source/ff.c **** 			if (res != FR_OK) return res;
1376:..\..\FatFS-master\source/ff.c **** 		}
1377:..\..\FatFS-master\source/ff.c **** 		obj->stat = 0;	/* Change status 'FAT chain is valid' */
1378:..\..\FatFS-master\source/ff.c **** 	}
1379:..\..\FatFS-master\source/ff.c **** 	return FR_OK;
1380:..\..\FatFS-master\source/ff.c **** }
1381:..\..\FatFS-master\source/ff.c **** 
1382:..\..\FatFS-master\source/ff.c **** 
1383:..\..\FatFS-master\source/ff.c **** /*---------------------------------------------*/
1384:..\..\FatFS-master\source/ff.c **** /* Fill the last fragment of the FAT chain     */
1385:..\..\FatFS-master\source/ff.c **** /*---------------------------------------------*/
1386:..\..\FatFS-master\source/ff.c **** 
1387:..\..\FatFS-master\source/ff.c **** static
1388:..\..\FatFS-master\source/ff.c **** FRESULT fill_last_frag (
1389:..\..\FatFS-master\source/ff.c **** 	FFOBJID* obj,	/* Pointer to the corresponding object */
1390:..\..\FatFS-master\source/ff.c **** 	DWORD lcl,		/* Last cluster of the fragment */
1391:..\..\FatFS-master\source/ff.c **** 	DWORD term		/* Value to set the last FAT entry */
1392:..\..\FatFS-master\source/ff.c **** )
1393:..\..\FatFS-master\source/ff.c **** {
1394:..\..\FatFS-master\source/ff.c **** 	FRESULT res;
1395:..\..\FatFS-master\source/ff.c **** 
1396:..\..\FatFS-master\source/ff.c **** 
1397:..\..\FatFS-master\source/ff.c **** 	while (obj->n_frag > 0) {	/* Create the chain of last fragment */
1398:..\..\FatFS-master\source/ff.c **** 		res = put_fat(obj->fs, lcl - obj->n_frag + 1, (obj->n_frag > 1) ? lcl - obj->n_frag + 2 : term);
1399:..\..\FatFS-master\source/ff.c **** 		if (res != FR_OK) return res;
ARM GAS  C:\Users\NUSAIR~1\AppData\Local\Temp\ccFqg92r.s 			page 34


1400:..\..\FatFS-master\source/ff.c **** 		obj->n_frag--;
1401:..\..\FatFS-master\source/ff.c **** 	}
1402:..\..\FatFS-master\source/ff.c **** 	return FR_OK;
1403:..\..\FatFS-master\source/ff.c **** }
1404:..\..\FatFS-master\source/ff.c **** 
1405:..\..\FatFS-master\source/ff.c **** #endif	/* FF_FS_EXFAT && !FF_FS_READONLY */
1406:..\..\FatFS-master\source/ff.c **** 
1407:..\..\FatFS-master\source/ff.c **** 
1408:..\..\FatFS-master\source/ff.c **** 
1409:..\..\FatFS-master\source/ff.c **** #if !FF_FS_READONLY
1410:..\..\FatFS-master\source/ff.c **** /*-----------------------------------------------------------------------*/
1411:..\..\FatFS-master\source/ff.c **** /* FAT handling - Remove a cluster chain                                 */
1412:..\..\FatFS-master\source/ff.c **** /*-----------------------------------------------------------------------*/
1413:..\..\FatFS-master\source/ff.c **** static
1414:..\..\FatFS-master\source/ff.c **** FRESULT remove_chain (	/* FR_OK(0):succeeded, !=0:error */
1415:..\..\FatFS-master\source/ff.c **** 	FFOBJID* obj,		/* Corresponding object */
1416:..\..\FatFS-master\source/ff.c **** 	DWORD clst,			/* Cluster to remove a chain from */
1417:..\..\FatFS-master\source/ff.c **** 	DWORD pclst			/* Previous cluster of clst (0:entire chain) */
1418:..\..\FatFS-master\source/ff.c **** )
1419:..\..\FatFS-master\source/ff.c **** {
1420:..\..\FatFS-master\source/ff.c **** 	FRESULT res = FR_OK;
1421:..\..\FatFS-master\source/ff.c **** 	DWORD nxt;
1422:..\..\FatFS-master\source/ff.c **** 	FATFS *fs = obj->fs;
1423:..\..\FatFS-master\source/ff.c **** #if FF_FS_EXFAT || FF_USE_TRIM
1424:..\..\FatFS-master\source/ff.c **** 	DWORD scl = clst, ecl = clst;
1425:..\..\FatFS-master\source/ff.c **** #endif
1426:..\..\FatFS-master\source/ff.c **** #if FF_USE_TRIM
1427:..\..\FatFS-master\source/ff.c **** 	DWORD rt[2];
1428:..\..\FatFS-master\source/ff.c **** #endif
1429:..\..\FatFS-master\source/ff.c **** 
1430:..\..\FatFS-master\source/ff.c **** 	if (clst < 2 || clst >= fs->n_fatent) return FR_INT_ERR;	/* Check if in valid range */
1431:..\..\FatFS-master\source/ff.c **** 
1432:..\..\FatFS-master\source/ff.c **** 	/* Mark the previous cluster 'EOC' on the FAT if it exists */
1433:..\..\FatFS-master\source/ff.c **** 	if (pclst != 0 && (!FF_FS_EXFAT || fs->fs_type != FS_EXFAT || obj->stat != 2)) {
1434:..\..\FatFS-master\source/ff.c **** 		res = put_fat(fs, pclst, 0xFFFFFFFF);
1435:..\..\FatFS-master\source/ff.c **** 		if (res != FR_OK) return res;
1436:..\..\FatFS-master\source/ff.c **** 	}
1437:..\..\FatFS-master\source/ff.c **** 
1438:..\..\FatFS-master\source/ff.c **** 	/* Remove the chain */
1439:..\..\FatFS-master\source/ff.c **** 	do {
1440:..\..\FatFS-master\source/ff.c **** 		nxt = get_fat(obj, clst);			/* Get cluster status */
1441:..\..\FatFS-master\source/ff.c **** 		if (nxt == 0) break;				/* Empty cluster? */
1442:..\..\FatFS-master\source/ff.c **** 		if (nxt == 1) return FR_INT_ERR;	/* Internal error? */
1443:..\..\FatFS-master\source/ff.c **** 		if (nxt == 0xFFFFFFFF) return FR_DISK_ERR;	/* Disk error? */
1444:..\..\FatFS-master\source/ff.c **** 		if (!FF_FS_EXFAT || fs->fs_type != FS_EXFAT) {
1445:..\..\FatFS-master\source/ff.c **** 			res = put_fat(fs, clst, 0);		/* Mark the cluster 'free' on the FAT */
1446:..\..\FatFS-master\source/ff.c **** 			if (res != FR_OK) return res;
1447:..\..\FatFS-master\source/ff.c **** 		}
1448:..\..\FatFS-master\source/ff.c **** 		if (fs->free_clst < fs->n_fatent - 2) {	/* Update FSINFO */
1449:..\..\FatFS-master\source/ff.c **** 			fs->free_clst++;
1450:..\..\FatFS-master\source/ff.c **** 			fs->fsi_flag |= 1;
1451:..\..\FatFS-master\source/ff.c **** 		}
1452:..\..\FatFS-master\source/ff.c **** #if FF_FS_EXFAT || FF_USE_TRIM
1453:..\..\FatFS-master\source/ff.c **** 		if (ecl + 1 == nxt) {	/* Is next cluster contiguous? */
1454:..\..\FatFS-master\source/ff.c **** 			ecl = nxt;
1455:..\..\FatFS-master\source/ff.c **** 		} else {				/* End of contiguous cluster block */
1456:..\..\FatFS-master\source/ff.c **** #if FF_FS_EXFAT
ARM GAS  C:\Users\NUSAIR~1\AppData\Local\Temp\ccFqg92r.s 			page 35


1457:..\..\FatFS-master\source/ff.c **** 			if (fs->fs_type == FS_EXFAT) {
1458:..\..\FatFS-master\source/ff.c **** 				res = change_bitmap(fs, scl, ecl - scl + 1, 0);	/* Mark the cluster block 'free' on the bitmap 
1459:..\..\FatFS-master\source/ff.c **** 				if (res != FR_OK) return res;
1460:..\..\FatFS-master\source/ff.c **** 			}
1461:..\..\FatFS-master\source/ff.c **** #endif
1462:..\..\FatFS-master\source/ff.c **** #if FF_USE_TRIM
1463:..\..\FatFS-master\source/ff.c **** 			rt[0] = clst2sect(fs, scl);					/* Start of data area freed */
1464:..\..\FatFS-master\source/ff.c **** 			rt[1] = clst2sect(fs, ecl) + fs->csize - 1;	/* End of data area freed */
1465:..\..\FatFS-master\source/ff.c **** 			disk_ioctl(fs->pdrv, CTRL_TRIM, rt);		/* Inform device the data in the block is no longer needed
1466:..\..\FatFS-master\source/ff.c **** #endif
1467:..\..\FatFS-master\source/ff.c **** 			scl = ecl = nxt;
1468:..\..\FatFS-master\source/ff.c **** 		}
1469:..\..\FatFS-master\source/ff.c **** #endif
1470:..\..\FatFS-master\source/ff.c **** 		clst = nxt;					/* Next cluster */
1471:..\..\FatFS-master\source/ff.c **** 	} while (clst < fs->n_fatent);	/* Repeat while not the last link */
1472:..\..\FatFS-master\source/ff.c **** 
1473:..\..\FatFS-master\source/ff.c **** #if FF_FS_EXFAT
1474:..\..\FatFS-master\source/ff.c **** 	/* Some post processes for chain status */
1475:..\..\FatFS-master\source/ff.c **** 	if (fs->fs_type == FS_EXFAT) {
1476:..\..\FatFS-master\source/ff.c **** 		if (pclst == 0) {	/* Has the entire chain been removed? */
1477:..\..\FatFS-master\source/ff.c **** 			obj->stat = 0;		/* Change the chain status 'initial' */
1478:..\..\FatFS-master\source/ff.c **** 		} else {
1479:..\..\FatFS-master\source/ff.c **** 			if (obj->stat == 0) {	/* Is it a fragmented chain from the beginning of this session? */
1480:..\..\FatFS-master\source/ff.c **** 				clst = obj->sclust;		/* Follow the chain to check if it gets contiguous */
1481:..\..\FatFS-master\source/ff.c **** 				while (clst != pclst) {
1482:..\..\FatFS-master\source/ff.c **** 					nxt = get_fat(obj, clst);
1483:..\..\FatFS-master\source/ff.c **** 					if (nxt < 2) return FR_INT_ERR;
1484:..\..\FatFS-master\source/ff.c **** 					if (nxt == 0xFFFFFFFF) return FR_DISK_ERR;
1485:..\..\FatFS-master\source/ff.c **** 					if (nxt != clst + 1) break;	/* Not contiguous? */
1486:..\..\FatFS-master\source/ff.c **** 					clst++;
1487:..\..\FatFS-master\source/ff.c **** 				}
1488:..\..\FatFS-master\source/ff.c **** 				if (clst == pclst) {	/* Has the chain got contiguous again? */
1489:..\..\FatFS-master\source/ff.c **** 					obj->stat = 2;		/* Change the chain status 'contiguous' */
1490:..\..\FatFS-master\source/ff.c **** 				}
1491:..\..\FatFS-master\source/ff.c **** 			} else {
1492:..\..\FatFS-master\source/ff.c **** 				if (obj->stat == 3 && pclst >= obj->sclust && pclst <= obj->sclust + obj->n_cont) {	/* Was the 
1493:..\..\FatFS-master\source/ff.c **** 					obj->stat = 2;	/* Change the chain status 'contiguous' */
1494:..\..\FatFS-master\source/ff.c **** 				}
1495:..\..\FatFS-master\source/ff.c **** 			}
1496:..\..\FatFS-master\source/ff.c **** 		}
1497:..\..\FatFS-master\source/ff.c **** 	}
1498:..\..\FatFS-master\source/ff.c **** #endif
1499:..\..\FatFS-master\source/ff.c **** 	return FR_OK;
1500:..\..\FatFS-master\source/ff.c **** }
1501:..\..\FatFS-master\source/ff.c **** 
1502:..\..\FatFS-master\source/ff.c **** 
1503:..\..\FatFS-master\source/ff.c **** 
1504:..\..\FatFS-master\source/ff.c **** 
1505:..\..\FatFS-master\source/ff.c **** /*-----------------------------------------------------------------------*/
1506:..\..\FatFS-master\source/ff.c **** /* FAT handling - Stretch a chain or Create a new chain                  */
1507:..\..\FatFS-master\source/ff.c **** /*-----------------------------------------------------------------------*/
1508:..\..\FatFS-master\source/ff.c **** static
1509:..\..\FatFS-master\source/ff.c **** DWORD create_chain (	/* 0:No free cluster, 1:Internal error, 0xFFFFFFFF:Disk error, >=2:New cluster
1510:..\..\FatFS-master\source/ff.c **** 	FFOBJID* obj,		/* Corresponding object */
1511:..\..\FatFS-master\source/ff.c **** 	DWORD clst			/* Cluster# to stretch, 0:Create a new chain */
1512:..\..\FatFS-master\source/ff.c **** )
1513:..\..\FatFS-master\source/ff.c **** {
ARM GAS  C:\Users\NUSAIR~1\AppData\Local\Temp\ccFqg92r.s 			page 36


1514:..\..\FatFS-master\source/ff.c **** 	DWORD cs, ncl, scl;
1515:..\..\FatFS-master\source/ff.c **** 	FRESULT res;
1516:..\..\FatFS-master\source/ff.c **** 	FATFS *fs = obj->fs;
1517:..\..\FatFS-master\source/ff.c **** 
1518:..\..\FatFS-master\source/ff.c **** 
1519:..\..\FatFS-master\source/ff.c **** 	if (clst == 0) {	/* Create a new chain */
1520:..\..\FatFS-master\source/ff.c **** 		scl = fs->last_clst;				/* Suggested cluster to start to find */
1521:..\..\FatFS-master\source/ff.c **** 		if (scl == 0 || scl >= fs->n_fatent) scl = 1;
1522:..\..\FatFS-master\source/ff.c **** 	}
1523:..\..\FatFS-master\source/ff.c **** 	else {				/* Stretch a chain */
1524:..\..\FatFS-master\source/ff.c **** 		cs = get_fat(obj, clst);			/* Check the cluster status */
1525:..\..\FatFS-master\source/ff.c **** 		if (cs < 2) return 1;				/* Test for insanity */
1526:..\..\FatFS-master\source/ff.c **** 		if (cs == 0xFFFFFFFF) return cs;	/* Test for disk error */
1527:..\..\FatFS-master\source/ff.c **** 		if (cs < fs->n_fatent) return cs;	/* It is already followed by next cluster */
1528:..\..\FatFS-master\source/ff.c **** 		scl = clst;							/* Cluster to start to find */
1529:..\..\FatFS-master\source/ff.c **** 	}
1530:..\..\FatFS-master\source/ff.c **** 	if (fs->free_clst == 0) return 0;		/* No free cluster */
1531:..\..\FatFS-master\source/ff.c **** 
1532:..\..\FatFS-master\source/ff.c **** #if FF_FS_EXFAT
1533:..\..\FatFS-master\source/ff.c **** 	if (fs->fs_type == FS_EXFAT) {	/* On the exFAT volume */
1534:..\..\FatFS-master\source/ff.c **** 		ncl = find_bitmap(fs, scl, 1);				/* Find a free cluster */
1535:..\..\FatFS-master\source/ff.c **** 		if (ncl == 0 || ncl == 0xFFFFFFFF) return ncl;	/* No free cluster or hard error? */
1536:..\..\FatFS-master\source/ff.c **** 		res = change_bitmap(fs, ncl, 1, 1);			/* Mark the cluster 'in use' */
1537:..\..\FatFS-master\source/ff.c **** 		if (res == FR_INT_ERR) return 1;
1538:..\..\FatFS-master\source/ff.c **** 		if (res == FR_DISK_ERR) return 0xFFFFFFFF;
1539:..\..\FatFS-master\source/ff.c **** 		if (clst == 0) {							/* Is it a new chain? */
1540:..\..\FatFS-master\source/ff.c **** 			obj->stat = 2;							/* Set status 'contiguous' */
1541:..\..\FatFS-master\source/ff.c **** 		} else {									/* It is a stretched chain */
1542:..\..\FatFS-master\source/ff.c **** 			if (obj->stat == 2 && ncl != scl + 1) {	/* Is the chain got fragmented? */
1543:..\..\FatFS-master\source/ff.c **** 				obj->n_cont = scl - obj->sclust;	/* Set size of the contiguous part */
1544:..\..\FatFS-master\source/ff.c **** 				obj->stat = 3;						/* Change status 'just fragmented' */
1545:..\..\FatFS-master\source/ff.c **** 			}
1546:..\..\FatFS-master\source/ff.c **** 		}
1547:..\..\FatFS-master\source/ff.c **** 		if (obj->stat != 2) {	/* Is the file non-contiguous? */
1548:..\..\FatFS-master\source/ff.c **** 			if (ncl == clst + 1) {	/* Is the cluster next to previous one? */
1549:..\..\FatFS-master\source/ff.c **** 				obj->n_frag = obj->n_frag ? obj->n_frag + 1 : 2;	/* Increment size of last framgent */
1550:..\..\FatFS-master\source/ff.c **** 			} else {				/* New fragment */
1551:..\..\FatFS-master\source/ff.c **** 				if (obj->n_frag == 0) obj->n_frag = 1;
1552:..\..\FatFS-master\source/ff.c **** 				res = fill_last_frag(obj, clst, ncl);	/* Fill last fragment on the FAT and link it to new one *
1553:..\..\FatFS-master\source/ff.c **** 				if (res == FR_OK) obj->n_frag = 1;
1554:..\..\FatFS-master\source/ff.c **** 			}
1555:..\..\FatFS-master\source/ff.c **** 		}
1556:..\..\FatFS-master\source/ff.c **** 	} else
1557:..\..\FatFS-master\source/ff.c **** #endif
1558:..\..\FatFS-master\source/ff.c **** 	{	/* On the FAT/FAT32 volume */
1559:..\..\FatFS-master\source/ff.c **** 		ncl = 0;
1560:..\..\FatFS-master\source/ff.c **** 		if (scl == clst) {						/* Stretching an existing chain? */
1561:..\..\FatFS-master\source/ff.c **** 			ncl = scl + 1;						/* Test if next cluster is free */
1562:..\..\FatFS-master\source/ff.c **** 			if (ncl >= fs->n_fatent) ncl = 2;
1563:..\..\FatFS-master\source/ff.c **** 			cs = get_fat(obj, ncl);				/* Get next cluster status */
1564:..\..\FatFS-master\source/ff.c **** 			if (cs == 1 || cs == 0xFFFFFFFF) return cs;	/* Test for error */
1565:..\..\FatFS-master\source/ff.c **** 			if (cs != 0) {						/* Not free? */
1566:..\..\FatFS-master\source/ff.c **** 				cs = fs->last_clst;				/* Start at suggested cluster if it is valid */
1567:..\..\FatFS-master\source/ff.c **** 				if (cs >= 2 && cs < fs->n_fatent) scl = cs;
1568:..\..\FatFS-master\source/ff.c **** 				ncl = 0;
1569:..\..\FatFS-master\source/ff.c **** 			}
1570:..\..\FatFS-master\source/ff.c **** 		}
ARM GAS  C:\Users\NUSAIR~1\AppData\Local\Temp\ccFqg92r.s 			page 37


1571:..\..\FatFS-master\source/ff.c **** 		if (ncl == 0) {	/* The new cluster cannot be contiguous and find another fragment */
1572:..\..\FatFS-master\source/ff.c **** 			ncl = scl;	/* Start cluster */
1573:..\..\FatFS-master\source/ff.c **** 			for (;;) {
1574:..\..\FatFS-master\source/ff.c **** 				ncl++;							/* Next cluster */
1575:..\..\FatFS-master\source/ff.c **** 				if (ncl >= fs->n_fatent) {		/* Check wrap-around */
1576:..\..\FatFS-master\source/ff.c **** 					ncl = 2;
1577:..\..\FatFS-master\source/ff.c **** 					if (ncl > scl) return 0;	/* No free cluster found? */
1578:..\..\FatFS-master\source/ff.c **** 				}
1579:..\..\FatFS-master\source/ff.c **** 				cs = get_fat(obj, ncl);			/* Get the cluster status */
1580:..\..\FatFS-master\source/ff.c **** 				if (cs == 0) break;				/* Found a free cluster? */
1581:..\..\FatFS-master\source/ff.c **** 				if (cs == 1 || cs == 0xFFFFFFFF) return cs;	/* Test for error */
1582:..\..\FatFS-master\source/ff.c **** 				if (ncl == scl) return 0;		/* No free cluster found? */
1583:..\..\FatFS-master\source/ff.c **** 			}
1584:..\..\FatFS-master\source/ff.c **** 		}
1585:..\..\FatFS-master\source/ff.c **** 		res = put_fat(fs, ncl, 0xFFFFFFFF);		/* Mark the new cluster 'EOC' */
1586:..\..\FatFS-master\source/ff.c **** 		if (res == FR_OK && clst != 0) {
1587:..\..\FatFS-master\source/ff.c **** 			res = put_fat(fs, clst, ncl);		/* Link it from the previous one if needed */
1588:..\..\FatFS-master\source/ff.c **** 		}
1589:..\..\FatFS-master\source/ff.c **** 	}
1590:..\..\FatFS-master\source/ff.c **** 
1591:..\..\FatFS-master\source/ff.c **** 	if (res == FR_OK) {			/* Update FSINFO if function succeeded. */
1592:..\..\FatFS-master\source/ff.c **** 		fs->last_clst = ncl;
1593:..\..\FatFS-master\source/ff.c **** 		if (fs->free_clst <= fs->n_fatent - 2) fs->free_clst--;
1594:..\..\FatFS-master\source/ff.c **** 		fs->fsi_flag |= 1;
1595:..\..\FatFS-master\source/ff.c **** 	} else {
1596:..\..\FatFS-master\source/ff.c **** 		ncl = (res == FR_DISK_ERR) ? 0xFFFFFFFF : 1;	/* Failed. Generate error status */
1597:..\..\FatFS-master\source/ff.c **** 	}
1598:..\..\FatFS-master\source/ff.c **** 
1599:..\..\FatFS-master\source/ff.c **** 	return ncl;		/* Return new cluster number or error status */
1600:..\..\FatFS-master\source/ff.c **** }
1601:..\..\FatFS-master\source/ff.c **** 
1602:..\..\FatFS-master\source/ff.c **** #endif /* !FF_FS_READONLY */
1603:..\..\FatFS-master\source/ff.c **** 
1604:..\..\FatFS-master\source/ff.c **** 
1605:..\..\FatFS-master\source/ff.c **** 
1606:..\..\FatFS-master\source/ff.c **** 
1607:..\..\FatFS-master\source/ff.c **** #if FF_USE_FASTSEEK
1608:..\..\FatFS-master\source/ff.c **** /*-----------------------------------------------------------------------*/
1609:..\..\FatFS-master\source/ff.c **** /* FAT handling - Convert offset into cluster with link map table        */
1610:..\..\FatFS-master\source/ff.c **** /*-----------------------------------------------------------------------*/
1611:..\..\FatFS-master\source/ff.c **** 
1612:..\..\FatFS-master\source/ff.c **** static
1613:..\..\FatFS-master\source/ff.c **** DWORD clmt_clust (	/* <2:Error, >=2:Cluster number */
1614:..\..\FatFS-master\source/ff.c **** 	FIL* fp,		/* Pointer to the file object */
1615:..\..\FatFS-master\source/ff.c **** 	FSIZE_t ofs		/* File offset to be converted to cluster# */
1616:..\..\FatFS-master\source/ff.c **** )
1617:..\..\FatFS-master\source/ff.c **** {
1618:..\..\FatFS-master\source/ff.c **** 	DWORD cl, ncl, *tbl;
1619:..\..\FatFS-master\source/ff.c **** 	FATFS *fs = fp->obj.fs;
1620:..\..\FatFS-master\source/ff.c **** 
1621:..\..\FatFS-master\source/ff.c **** 
1622:..\..\FatFS-master\source/ff.c **** 	tbl = fp->cltbl + 1;	/* Top of CLMT */
1623:..\..\FatFS-master\source/ff.c **** 	cl = (DWORD)(ofs / SS(fs) / fs->csize);	/* Cluster order from top of the file */
1624:..\..\FatFS-master\source/ff.c **** 	for (;;) {
1625:..\..\FatFS-master\source/ff.c **** 		ncl = *tbl++;			/* Number of cluters in the fragment */
1626:..\..\FatFS-master\source/ff.c **** 		if (ncl == 0) return 0;	/* End of table? (error) */
1627:..\..\FatFS-master\source/ff.c **** 		if (cl < ncl) break;	/* In this fragment? */
ARM GAS  C:\Users\NUSAIR~1\AppData\Local\Temp\ccFqg92r.s 			page 38


1628:..\..\FatFS-master\source/ff.c **** 		cl -= ncl; tbl++;		/* Next fragment */
1629:..\..\FatFS-master\source/ff.c **** 	}
1630:..\..\FatFS-master\source/ff.c **** 	return cl + *tbl;	/* Return the cluster number */
1631:..\..\FatFS-master\source/ff.c **** }
1632:..\..\FatFS-master\source/ff.c **** 
1633:..\..\FatFS-master\source/ff.c **** #endif	/* FF_USE_FASTSEEK */
1634:..\..\FatFS-master\source/ff.c **** 
1635:..\..\FatFS-master\source/ff.c **** 
1636:..\..\FatFS-master\source/ff.c **** 
1637:..\..\FatFS-master\source/ff.c **** 
1638:..\..\FatFS-master\source/ff.c **** /*-----------------------------------------------------------------------*/
1639:..\..\FatFS-master\source/ff.c **** /* Directory handling - Fill a cluster with zeros                        */
1640:..\..\FatFS-master\source/ff.c **** /*-----------------------------------------------------------------------*/
1641:..\..\FatFS-master\source/ff.c **** 
1642:..\..\FatFS-master\source/ff.c **** #if !FF_FS_READONLY
1643:..\..\FatFS-master\source/ff.c **** static
1644:..\..\FatFS-master\source/ff.c **** FRESULT dir_clear (	/* Returns FR_OK or FR_DISK_ERR */
1645:..\..\FatFS-master\source/ff.c **** 	FATFS *fs,		/* Filesystem object */
1646:..\..\FatFS-master\source/ff.c **** 	DWORD clst		/* Directory table to clear */
1647:..\..\FatFS-master\source/ff.c **** )
1648:..\..\FatFS-master\source/ff.c **** {
1649:..\..\FatFS-master\source/ff.c **** 	DWORD sect;
1650:..\..\FatFS-master\source/ff.c **** 	UINT n, szb;
1651:..\..\FatFS-master\source/ff.c **** 	BYTE *ibuf;
1652:..\..\FatFS-master\source/ff.c **** 
1653:..\..\FatFS-master\source/ff.c **** 
1654:..\..\FatFS-master\source/ff.c **** 	if (sync_window(fs) != FR_OK) return FR_DISK_ERR;	/* Flush disk access window */
1655:..\..\FatFS-master\source/ff.c **** 	sect = clst2sect(fs, clst);		/* Top of the cluster */
1656:..\..\FatFS-master\source/ff.c **** 	fs->winsect = sect;				/* Set window to top of the cluster */
1657:..\..\FatFS-master\source/ff.c **** 	mem_set(fs->win, 0, SS(fs));	/* Clear window buffer */
1658:..\..\FatFS-master\source/ff.c **** #if FF_USE_LFN == 3		/* Quick table clear by using multi-secter write */
1659:..\..\FatFS-master\source/ff.c **** 	/* Allocate a temporary buffer */
1660:..\..\FatFS-master\source/ff.c **** 	for (szb = ((DWORD)fs->csize * SS(fs) >= MAX_MALLOC) ? MAX_MALLOC : fs->csize * SS(fs); szb > SS(f
1661:..\..\FatFS-master\source/ff.c **** 	if (szb > SS(fs)) {		/* Buffer allocated? */
1662:..\..\FatFS-master\source/ff.c **** 		mem_set(ibuf, 0, szb);
1663:..\..\FatFS-master\source/ff.c **** 		szb /= SS(fs);		/* Bytes -> Sectors */
1664:..\..\FatFS-master\source/ff.c **** 		for (n = 0; n < fs->csize && disk_write(fs->pdrv, ibuf, sect + n, szb) == RES_OK; n += szb) ;	/* 
1665:..\..\FatFS-master\source/ff.c **** 		ff_memfree(ibuf);
1666:..\..\FatFS-master\source/ff.c **** 	} else
1667:..\..\FatFS-master\source/ff.c **** #endif
1668:..\..\FatFS-master\source/ff.c **** 	{
1669:..\..\FatFS-master\source/ff.c **** 		ibuf = fs->win; szb = 1;	/* Use window buffer (single-sector writes may take a time) */
1670:..\..\FatFS-master\source/ff.c **** 		for (n = 0; n < fs->csize && disk_write(fs->pdrv, ibuf, sect + n, szb) == RES_OK; n += szb) ;	/* 
1671:..\..\FatFS-master\source/ff.c **** 	}
1672:..\..\FatFS-master\source/ff.c **** 	return (n == fs->csize) ? FR_OK : FR_DISK_ERR;
1673:..\..\FatFS-master\source/ff.c **** }
1674:..\..\FatFS-master\source/ff.c **** #endif	/* !FF_FS_READONLY */
1675:..\..\FatFS-master\source/ff.c **** 
1676:..\..\FatFS-master\source/ff.c **** 
1677:..\..\FatFS-master\source/ff.c **** 
1678:..\..\FatFS-master\source/ff.c **** 
1679:..\..\FatFS-master\source/ff.c **** /*-----------------------------------------------------------------------*/
1680:..\..\FatFS-master\source/ff.c **** /* Directory handling - Set directory index                              */
1681:..\..\FatFS-master\source/ff.c **** /*-----------------------------------------------------------------------*/
1682:..\..\FatFS-master\source/ff.c **** 
1683:..\..\FatFS-master\source/ff.c **** static
1684:..\..\FatFS-master\source/ff.c **** FRESULT dir_sdi (	/* FR_OK(0):succeeded, !=0:error */
ARM GAS  C:\Users\NUSAIR~1\AppData\Local\Temp\ccFqg92r.s 			page 39


1685:..\..\FatFS-master\source/ff.c **** 	DIR* dp,		/* Pointer to directory object */
1686:..\..\FatFS-master\source/ff.c **** 	DWORD ofs		/* Offset of directory table */
1687:..\..\FatFS-master\source/ff.c **** )
1688:..\..\FatFS-master\source/ff.c **** {
1689:..\..\FatFS-master\source/ff.c **** 	DWORD csz, clst;
1690:..\..\FatFS-master\source/ff.c **** 	FATFS *fs = dp->obj.fs;
1691:..\..\FatFS-master\source/ff.c **** 
1692:..\..\FatFS-master\source/ff.c **** 
1693:..\..\FatFS-master\source/ff.c **** 	if (ofs >= (DWORD)((FF_FS_EXFAT && fs->fs_type == FS_EXFAT) ? MAX_DIR_EX : MAX_DIR) || ofs % SZDIR
1694:..\..\FatFS-master\source/ff.c **** 		return FR_INT_ERR;
1695:..\..\FatFS-master\source/ff.c **** 	}
1696:..\..\FatFS-master\source/ff.c **** 	dp->dptr = ofs;				/* Set current offset */
1697:..\..\FatFS-master\source/ff.c **** 	clst = dp->obj.sclust;		/* Table start cluster (0:root) */
1698:..\..\FatFS-master\source/ff.c **** 	if (clst == 0 && fs->fs_type >= FS_FAT32) {	/* Replace cluster# 0 with root cluster# */
1699:..\..\FatFS-master\source/ff.c **** 		clst = fs->dirbase;
1700:..\..\FatFS-master\source/ff.c **** 		if (FF_FS_EXFAT) dp->obj.stat = 0;	/* exFAT: Root dir has an FAT chain */
1701:..\..\FatFS-master\source/ff.c **** 	}
1702:..\..\FatFS-master\source/ff.c **** 
1703:..\..\FatFS-master\source/ff.c **** 	if (clst == 0) {	/* Static table (root-directory on the FAT volume) */
1704:..\..\FatFS-master\source/ff.c **** 		if (ofs / SZDIRE >= fs->n_rootdir) return FR_INT_ERR;	/* Is index out of range? */
1705:..\..\FatFS-master\source/ff.c **** 		dp->sect = fs->dirbase;
1706:..\..\FatFS-master\source/ff.c **** 
1707:..\..\FatFS-master\source/ff.c **** 	} else {			/* Dynamic table (sub-directory or root-directory on the FAT32/exFAT volume) */
1708:..\..\FatFS-master\source/ff.c **** 		csz = (DWORD)fs->csize * SS(fs);	/* Bytes per cluster */
1709:..\..\FatFS-master\source/ff.c **** 		while (ofs >= csz) {				/* Follow cluster chain */
1710:..\..\FatFS-master\source/ff.c **** 			clst = get_fat(&dp->obj, clst);				/* Get next cluster */
1711:..\..\FatFS-master\source/ff.c **** 			if (clst == 0xFFFFFFFF) return FR_DISK_ERR;	/* Disk error */
1712:..\..\FatFS-master\source/ff.c **** 			if (clst < 2 || clst >= fs->n_fatent) return FR_INT_ERR;	/* Reached to end of table or internal 
1713:..\..\FatFS-master\source/ff.c **** 			ofs -= csz;
1714:..\..\FatFS-master\source/ff.c **** 		}
1715:..\..\FatFS-master\source/ff.c **** 		dp->sect = clst2sect(fs, clst);
1716:..\..\FatFS-master\source/ff.c **** 	}
1717:..\..\FatFS-master\source/ff.c **** 	dp->clust = clst;					/* Current cluster# */
1718:..\..\FatFS-master\source/ff.c **** 	if (dp->sect == 0) return FR_INT_ERR;
1719:..\..\FatFS-master\source/ff.c **** 	dp->sect += ofs / SS(fs);			/* Sector# of the directory entry */
1720:..\..\FatFS-master\source/ff.c **** 	dp->dir = fs->win + (ofs % SS(fs));	/* Pointer to the entry in the win[] */
1721:..\..\FatFS-master\source/ff.c **** 
1722:..\..\FatFS-master\source/ff.c **** 	return FR_OK;
1723:..\..\FatFS-master\source/ff.c **** }
1724:..\..\FatFS-master\source/ff.c **** 
1725:..\..\FatFS-master\source/ff.c **** 
1726:..\..\FatFS-master\source/ff.c **** 
1727:..\..\FatFS-master\source/ff.c **** 
1728:..\..\FatFS-master\source/ff.c **** /*-----------------------------------------------------------------------*/
1729:..\..\FatFS-master\source/ff.c **** /* Directory handling - Move directory table index next                  */
1730:..\..\FatFS-master\source/ff.c **** /*-----------------------------------------------------------------------*/
1731:..\..\FatFS-master\source/ff.c **** 
1732:..\..\FatFS-master\source/ff.c **** static
1733:..\..\FatFS-master\source/ff.c **** FRESULT dir_next (	/* FR_OK(0):succeeded, FR_NO_FILE:End of table, FR_DENIED:Could not stretch */
1734:..\..\FatFS-master\source/ff.c **** 	DIR* dp,		/* Pointer to the directory object */
1735:..\..\FatFS-master\source/ff.c **** 	int stretch		/* 0: Do not stretch table, 1: Stretch table if needed */
1736:..\..\FatFS-master\source/ff.c **** )
1737:..\..\FatFS-master\source/ff.c **** {
1738:..\..\FatFS-master\source/ff.c **** 	DWORD ofs, clst;
1739:..\..\FatFS-master\source/ff.c **** 	FATFS *fs = dp->obj.fs;
1740:..\..\FatFS-master\source/ff.c **** 
1741:..\..\FatFS-master\source/ff.c **** 
ARM GAS  C:\Users\NUSAIR~1\AppData\Local\Temp\ccFqg92r.s 			page 40


1742:..\..\FatFS-master\source/ff.c **** 	ofs = dp->dptr + SZDIRE;	/* Next entry */
1743:..\..\FatFS-master\source/ff.c **** 	if (dp->sect == 0 || ofs >= (DWORD)((FF_FS_EXFAT && fs->fs_type == FS_EXFAT) ? MAX_DIR_EX : MAX_DI
1744:..\..\FatFS-master\source/ff.c **** 
1745:..\..\FatFS-master\source/ff.c **** 	if (ofs % SS(fs) == 0) {	/* Sector changed? */
1746:..\..\FatFS-master\source/ff.c **** 		dp->sect++;				/* Next sector */
1747:..\..\FatFS-master\source/ff.c **** 
1748:..\..\FatFS-master\source/ff.c **** 		if (dp->clust == 0) {	/* Static table */
1749:..\..\FatFS-master\source/ff.c **** 			if (ofs / SZDIRE >= fs->n_rootdir) {	/* Report EOT if it reached end of static table */
1750:..\..\FatFS-master\source/ff.c **** 				dp->sect = 0; return FR_NO_FILE;
1751:..\..\FatFS-master\source/ff.c **** 			}
1752:..\..\FatFS-master\source/ff.c **** 		}
1753:..\..\FatFS-master\source/ff.c **** 		else {					/* Dynamic table */
1754:..\..\FatFS-master\source/ff.c **** 			if ((ofs / SS(fs) & (fs->csize - 1)) == 0) {	/* Cluster changed? */
1755:..\..\FatFS-master\source/ff.c **** 				clst = get_fat(&dp->obj, dp->clust);		/* Get next cluster */
1756:..\..\FatFS-master\source/ff.c **** 				if (clst <= 1) return FR_INT_ERR;			/* Internal error */
1757:..\..\FatFS-master\source/ff.c **** 				if (clst == 0xFFFFFFFF) return FR_DISK_ERR;	/* Disk error */
1758:..\..\FatFS-master\source/ff.c **** 				if (clst >= fs->n_fatent) {					/* It reached end of dynamic table */
1759:..\..\FatFS-master\source/ff.c **** #if !FF_FS_READONLY
1760:..\..\FatFS-master\source/ff.c **** 					if (!stretch) {								/* If no stretch, report EOT */
1761:..\..\FatFS-master\source/ff.c **** 						dp->sect = 0; return FR_NO_FILE;
1762:..\..\FatFS-master\source/ff.c **** 					}
1763:..\..\FatFS-master\source/ff.c **** 					clst = create_chain(&dp->obj, dp->clust);	/* Allocate a cluster */
1764:..\..\FatFS-master\source/ff.c **** 					if (clst == 0) return FR_DENIED;			/* No free cluster */
1765:..\..\FatFS-master\source/ff.c **** 					if (clst == 1) return FR_INT_ERR;			/* Internal error */
1766:..\..\FatFS-master\source/ff.c **** 					if (clst == 0xFFFFFFFF) return FR_DISK_ERR;	/* Disk error */
1767:..\..\FatFS-master\source/ff.c **** 					if (dir_clear(fs, clst) != FR_OK) return FR_DISK_ERR;	/* Clean up the stretched table */
1768:..\..\FatFS-master\source/ff.c **** 					if (FF_FS_EXFAT) dp->obj.stat |= 4;			/* exFAT: The directory has been stretched */
1769:..\..\FatFS-master\source/ff.c **** #else
1770:..\..\FatFS-master\source/ff.c **** 					if (!stretch) dp->sect = 0;					/* (this line is to suppress compiler warning) */
1771:..\..\FatFS-master\source/ff.c **** 					dp->sect = 0; return FR_NO_FILE;			/* Report EOT */
1772:..\..\FatFS-master\source/ff.c **** #endif
1773:..\..\FatFS-master\source/ff.c **** 				}
1774:..\..\FatFS-master\source/ff.c **** 				dp->clust = clst;		/* Initialize data for new cluster */
1775:..\..\FatFS-master\source/ff.c **** 				dp->sect = clst2sect(fs, clst);
1776:..\..\FatFS-master\source/ff.c **** 			}
1777:..\..\FatFS-master\source/ff.c **** 		}
1778:..\..\FatFS-master\source/ff.c **** 	}
1779:..\..\FatFS-master\source/ff.c **** 	dp->dptr = ofs;						/* Current entry */
1780:..\..\FatFS-master\source/ff.c **** 	dp->dir = fs->win + ofs % SS(fs);	/* Pointer to the entry in the win[] */
1781:..\..\FatFS-master\source/ff.c **** 
1782:..\..\FatFS-master\source/ff.c **** 	return FR_OK;
1783:..\..\FatFS-master\source/ff.c **** }
1784:..\..\FatFS-master\source/ff.c **** 
1785:..\..\FatFS-master\source/ff.c **** 
1786:..\..\FatFS-master\source/ff.c **** 
1787:..\..\FatFS-master\source/ff.c **** 
1788:..\..\FatFS-master\source/ff.c **** #if !FF_FS_READONLY
1789:..\..\FatFS-master\source/ff.c **** /*-----------------------------------------------------------------------*/
1790:..\..\FatFS-master\source/ff.c **** /* Directory handling - Reserve a block of directory entries             */
1791:..\..\FatFS-master\source/ff.c **** /*-----------------------------------------------------------------------*/
1792:..\..\FatFS-master\source/ff.c **** 
1793:..\..\FatFS-master\source/ff.c **** static
1794:..\..\FatFS-master\source/ff.c **** FRESULT dir_alloc (	/* FR_OK(0):succeeded, !=0:error */
1795:..\..\FatFS-master\source/ff.c **** 	DIR* dp,		/* Pointer to the directory object */
1796:..\..\FatFS-master\source/ff.c **** 	UINT nent		/* Number of contiguous entries to allocate */
1797:..\..\FatFS-master\source/ff.c **** )
1798:..\..\FatFS-master\source/ff.c **** {
ARM GAS  C:\Users\NUSAIR~1\AppData\Local\Temp\ccFqg92r.s 			page 41


1799:..\..\FatFS-master\source/ff.c **** 	FRESULT res;
1800:..\..\FatFS-master\source/ff.c **** 	UINT n;
1801:..\..\FatFS-master\source/ff.c **** 	FATFS *fs = dp->obj.fs;
1802:..\..\FatFS-master\source/ff.c **** 
1803:..\..\FatFS-master\source/ff.c **** 
1804:..\..\FatFS-master\source/ff.c **** 	res = dir_sdi(dp, 0);
1805:..\..\FatFS-master\source/ff.c **** 	if (res == FR_OK) {
1806:..\..\FatFS-master\source/ff.c **** 		n = 0;
1807:..\..\FatFS-master\source/ff.c **** 		do {
1808:..\..\FatFS-master\source/ff.c **** 			res = move_window(fs, dp->sect);
1809:..\..\FatFS-master\source/ff.c **** 			if (res != FR_OK) break;
1810:..\..\FatFS-master\source/ff.c **** #if FF_FS_EXFAT
1811:..\..\FatFS-master\source/ff.c **** 			if ((fs->fs_type == FS_EXFAT) ? (int)((dp->dir[XDIR_Type] & 0x80) == 0) : (int)(dp->dir[DIR_Name
1812:..\..\FatFS-master\source/ff.c **** #else
1813:..\..\FatFS-master\source/ff.c **** 			if (dp->dir[DIR_Name] == DDEM || dp->dir[DIR_Name] == 0) {
1814:..\..\FatFS-master\source/ff.c **** #endif
1815:..\..\FatFS-master\source/ff.c **** 				if (++n == nent) break;	/* A block of contiguous free entries is found */
1816:..\..\FatFS-master\source/ff.c **** 			} else {
1817:..\..\FatFS-master\source/ff.c **** 				n = 0;					/* Not a blank entry. Restart to search */
1818:..\..\FatFS-master\source/ff.c **** 			}
1819:..\..\FatFS-master\source/ff.c **** 			res = dir_next(dp, 1);
1820:..\..\FatFS-master\source/ff.c **** 		} while (res == FR_OK);	/* Next entry with table stretch enabled */
1821:..\..\FatFS-master\source/ff.c **** 	}
1822:..\..\FatFS-master\source/ff.c **** 
1823:..\..\FatFS-master\source/ff.c **** 	if (res == FR_NO_FILE) res = FR_DENIED;	/* No directory entry to allocate */
1824:..\..\FatFS-master\source/ff.c **** 	return res;
1825:..\..\FatFS-master\source/ff.c **** }
1826:..\..\FatFS-master\source/ff.c **** 
1827:..\..\FatFS-master\source/ff.c **** #endif	/* !FF_FS_READONLY */
1828:..\..\FatFS-master\source/ff.c **** 
1829:..\..\FatFS-master\source/ff.c **** 
1830:..\..\FatFS-master\source/ff.c **** 
1831:..\..\FatFS-master\source/ff.c **** 
1832:..\..\FatFS-master\source/ff.c **** /*-----------------------------------------------------------------------*/
1833:..\..\FatFS-master\source/ff.c **** /* FAT: Directory handling - Load/Store start cluster number             */
1834:..\..\FatFS-master\source/ff.c **** /*-----------------------------------------------------------------------*/
1835:..\..\FatFS-master\source/ff.c **** 
1836:..\..\FatFS-master\source/ff.c **** static
1837:..\..\FatFS-master\source/ff.c **** DWORD ld_clust (	/* Returns the top cluster value of the SFN entry */
1838:..\..\FatFS-master\source/ff.c **** 	FATFS* fs,		/* Pointer to the fs object */
1839:..\..\FatFS-master\source/ff.c **** 	const BYTE* dir	/* Pointer to the key entry */
1840:..\..\FatFS-master\source/ff.c **** )
1841:..\..\FatFS-master\source/ff.c **** {
 474              		.loc 1 1841 0
 475              		.cfi_startproc
 476              		@ args = 0, pretend = 0, frame = 0
 477              		@ frame_needed = 0, uses_anonymous_args = 0
 478              	.LVL67:
 479 0000 70B5     		push	{r4, r5, r6, lr}
 480              		.cfi_def_cfa_offset 16
 481              		.cfi_offset 4, -16
 482              		.cfi_offset 5, -12
 483              		.cfi_offset 6, -8
 484              		.cfi_offset 14, -4
 485 0002 0600     		movs	r6, r0
 486 0004 0D00     		movs	r5, r1
1842:..\..\FatFS-master\source/ff.c **** 	DWORD cl;
ARM GAS  C:\Users\NUSAIR~1\AppData\Local\Temp\ccFqg92r.s 			page 42


1843:..\..\FatFS-master\source/ff.c **** 
1844:..\..\FatFS-master\source/ff.c **** 	cl = ld_word(dir + DIR_FstClusLO);
 487              		.loc 1 1844 0
 488 0006 0800     		movs	r0, r1
 489              	.LVL68:
 490 0008 1A30     		adds	r0, r0, #26
 491 000a FFF7FEFF 		bl	ld_word
 492              	.LVL69:
 493 000e 0400     		movs	r4, r0
 494              	.LVL70:
1845:..\..\FatFS-master\source/ff.c **** 	if (fs->fs_type == FS_FAT32) {
 495              		.loc 1 1845 0
 496 0010 3378     		ldrb	r3, [r6]
 497 0012 032B     		cmp	r3, #3
 498 0014 05D1     		bne	.L34
1846:..\..\FatFS-master\source/ff.c **** 		cl |= (DWORD)ld_word(dir + DIR_FstClusHI) << 16;
 499              		.loc 1 1846 0
 500 0016 2800     		movs	r0, r5
 501              	.LVL71:
 502 0018 1430     		adds	r0, r0, #20
 503 001a FFF7FEFF 		bl	ld_word
 504              	.LVL72:
 505 001e 0004     		lsls	r0, r0, #16
 506 0020 2043     		orrs	r0, r4
 507              	.LVL73:
 508              	.L34:
1847:..\..\FatFS-master\source/ff.c **** 	}
1848:..\..\FatFS-master\source/ff.c **** 
1849:..\..\FatFS-master\source/ff.c **** 	return cl;
1850:..\..\FatFS-master\source/ff.c **** }
 509              		.loc 1 1850 0
 510              		@ sp needed
 511              	.LVL74:
 512              	.LVL75:
 513 0022 70BD     		pop	{r4, r5, r6, pc}
 514              		.cfi_endproc
 515              	.LFE22:
 516              		.size	ld_clust, .-ld_clust
 517              		.section	.text.st_clust,"ax",%progbits
 518              		.align	2
 519              		.code	16
 520              		.thumb_func
 521              		.type	st_clust, %function
 522              	st_clust:
 523              	.LFB23:
1851:..\..\FatFS-master\source/ff.c **** 
1852:..\..\FatFS-master\source/ff.c **** 
1853:..\..\FatFS-master\source/ff.c **** #if !FF_FS_READONLY
1854:..\..\FatFS-master\source/ff.c **** static
1855:..\..\FatFS-master\source/ff.c **** void st_clust (
1856:..\..\FatFS-master\source/ff.c **** 	FATFS* fs,	/* Pointer to the fs object */
1857:..\..\FatFS-master\source/ff.c **** 	BYTE* dir,	/* Pointer to the key entry */
1858:..\..\FatFS-master\source/ff.c **** 	DWORD cl	/* Value to be set */
1859:..\..\FatFS-master\source/ff.c **** )
1860:..\..\FatFS-master\source/ff.c **** {
 524              		.loc 1 1860 0
 525              		.cfi_startproc
ARM GAS  C:\Users\NUSAIR~1\AppData\Local\Temp\ccFqg92r.s 			page 43


 526              		@ args = 0, pretend = 0, frame = 0
 527              		@ frame_needed = 0, uses_anonymous_args = 0
 528              	.LVL76:
 529 0000 70B5     		push	{r4, r5, r6, lr}
 530              		.cfi_def_cfa_offset 16
 531              		.cfi_offset 4, -16
 532              		.cfi_offset 5, -12
 533              		.cfi_offset 6, -8
 534              		.cfi_offset 14, -4
 535 0002 0600     		movs	r6, r0
 536 0004 0C00     		movs	r4, r1
 537 0006 1500     		movs	r5, r2
1861:..\..\FatFS-master\source/ff.c **** 	st_word(dir + DIR_FstClusLO, (WORD)cl);
 538              		.loc 1 1861 0
 539 0008 91B2     		uxth	r1, r2
 540              	.LVL77:
 541 000a 2000     		movs	r0, r4
 542              	.LVL78:
 543 000c 1A30     		adds	r0, r0, #26
 544 000e FFF7FEFF 		bl	st_word
 545              	.LVL79:
1862:..\..\FatFS-master\source/ff.c **** 	if (fs->fs_type == FS_FAT32) {
 546              		.loc 1 1862 0
 547 0012 3378     		ldrb	r3, [r6]
 548 0014 032B     		cmp	r3, #3
 549 0016 04D1     		bne	.L35
1863:..\..\FatFS-master\source/ff.c **** 		st_word(dir + DIR_FstClusHI, (WORD)(cl >> 16));
 550              		.loc 1 1863 0
 551 0018 290C     		lsrs	r1, r5, #16
 552 001a 2000     		movs	r0, r4
 553 001c 1430     		adds	r0, r0, #20
 554 001e FFF7FEFF 		bl	st_word
 555              	.LVL80:
 556              	.L35:
1864:..\..\FatFS-master\source/ff.c **** 	}
1865:..\..\FatFS-master\source/ff.c **** }
 557              		.loc 1 1865 0
 558              		@ sp needed
 559              	.LVL81:
 560              	.LVL82:
 561              	.LVL83:
 562 0022 70BD     		pop	{r4, r5, r6, pc}
 563              		.cfi_endproc
 564              	.LFE23:
 565              		.size	st_clust, .-st_clust
 566              		.section	.text.get_fileinfo,"ax",%progbits
 567              		.align	2
 568              		.code	16
 569              		.thumb_func
 570              		.type	get_fileinfo, %function
 571              	get_fileinfo:
 572              	.LFB28:
1866:..\..\FatFS-master\source/ff.c **** #endif
1867:..\..\FatFS-master\source/ff.c **** 
1868:..\..\FatFS-master\source/ff.c **** 
1869:..\..\FatFS-master\source/ff.c **** 
1870:..\..\FatFS-master\source/ff.c **** #if FF_USE_LFN
ARM GAS  C:\Users\NUSAIR~1\AppData\Local\Temp\ccFqg92r.s 			page 44


1871:..\..\FatFS-master\source/ff.c **** /*--------------------------------------------------------*/
1872:..\..\FatFS-master\source/ff.c **** /* FAT-LFN: Compare a part of file name with an LFN entry */
1873:..\..\FatFS-master\source/ff.c **** /*--------------------------------------------------------*/
1874:..\..\FatFS-master\source/ff.c **** static
1875:..\..\FatFS-master\source/ff.c **** int cmp_lfn (				/* 1:matched, 0:not matched */
1876:..\..\FatFS-master\source/ff.c **** 	const WCHAR* lfnbuf,	/* Pointer to the LFN working buffer to be compared */
1877:..\..\FatFS-master\source/ff.c **** 	BYTE* dir				/* Pointer to the directory entry containing the part of LFN */
1878:..\..\FatFS-master\source/ff.c **** )
1879:..\..\FatFS-master\source/ff.c **** {
1880:..\..\FatFS-master\source/ff.c **** 	UINT i, s;
1881:..\..\FatFS-master\source/ff.c **** 	WCHAR wc, uc;
1882:..\..\FatFS-master\source/ff.c **** 
1883:..\..\FatFS-master\source/ff.c **** 
1884:..\..\FatFS-master\source/ff.c **** 	if (ld_word(dir + LDIR_FstClusLO) != 0) return 0;	/* Check LDIR_FstClusLO */
1885:..\..\FatFS-master\source/ff.c **** 
1886:..\..\FatFS-master\source/ff.c **** 	i = ((dir[LDIR_Ord] & 0x3F) - 1) * 13;	/* Offset in the LFN buffer */
1887:..\..\FatFS-master\source/ff.c **** 
1888:..\..\FatFS-master\source/ff.c **** 	for (wc = 1, s = 0; s < 13; s++) {		/* Process all characters in the entry */
1889:..\..\FatFS-master\source/ff.c **** 		uc = ld_word(dir + LfnOfs[s]);		/* Pick an LFN character */
1890:..\..\FatFS-master\source/ff.c **** 		if (wc != 0) {
1891:..\..\FatFS-master\source/ff.c **** 			if (i >= FF_MAX_LFN || ff_wtoupper(uc) != ff_wtoupper(lfnbuf[i++])) {	/* Compare it */
1892:..\..\FatFS-master\source/ff.c **** 				return 0;					/* Not matched */
1893:..\..\FatFS-master\source/ff.c **** 			}
1894:..\..\FatFS-master\source/ff.c **** 			wc = uc;
1895:..\..\FatFS-master\source/ff.c **** 		} else {
1896:..\..\FatFS-master\source/ff.c **** 			if (uc != 0xFFFF) return 0;		/* Check filler */
1897:..\..\FatFS-master\source/ff.c **** 		}
1898:..\..\FatFS-master\source/ff.c **** 	}
1899:..\..\FatFS-master\source/ff.c **** 
1900:..\..\FatFS-master\source/ff.c **** 	if ((dir[LDIR_Ord] & LLEF) && wc && lfnbuf[i]) return 0;	/* Last segment matched but different len
1901:..\..\FatFS-master\source/ff.c **** 
1902:..\..\FatFS-master\source/ff.c **** 	return 1;		/* The part of LFN matched */
1903:..\..\FatFS-master\source/ff.c **** }
1904:..\..\FatFS-master\source/ff.c **** 
1905:..\..\FatFS-master\source/ff.c **** 
1906:..\..\FatFS-master\source/ff.c **** #if FF_FS_MINIMIZE <= 1 || FF_FS_RPATH >= 2 || FF_USE_LABEL || FF_FS_EXFAT
1907:..\..\FatFS-master\source/ff.c **** /*-----------------------------------------------------*/
1908:..\..\FatFS-master\source/ff.c **** /* FAT-LFN: Pick a part of file name from an LFN entry */
1909:..\..\FatFS-master\source/ff.c **** /*-----------------------------------------------------*/
1910:..\..\FatFS-master\source/ff.c **** static
1911:..\..\FatFS-master\source/ff.c **** int pick_lfn (			/* 1:succeeded, 0:buffer overflow or invalid LFN entry */
1912:..\..\FatFS-master\source/ff.c **** 	WCHAR* lfnbuf,		/* Pointer to the LFN working buffer */
1913:..\..\FatFS-master\source/ff.c **** 	BYTE* dir			/* Pointer to the LFN entry */
1914:..\..\FatFS-master\source/ff.c **** )
1915:..\..\FatFS-master\source/ff.c **** {
1916:..\..\FatFS-master\source/ff.c **** 	UINT i, s;
1917:..\..\FatFS-master\source/ff.c **** 	WCHAR wc, uc;
1918:..\..\FatFS-master\source/ff.c **** 
1919:..\..\FatFS-master\source/ff.c **** 
1920:..\..\FatFS-master\source/ff.c **** 	if (ld_word(dir + LDIR_FstClusLO) != 0) return 0;	/* Check LDIR_FstClusLO is 0 */
1921:..\..\FatFS-master\source/ff.c **** 
1922:..\..\FatFS-master\source/ff.c **** 	i = ((dir[LDIR_Ord] & ~LLEF) - 1) * 13;	/* Offset in the LFN buffer */
1923:..\..\FatFS-master\source/ff.c **** 
1924:..\..\FatFS-master\source/ff.c **** 	for (wc = 1, s = 0; s < 13; s++) {		/* Process all characters in the entry */
1925:..\..\FatFS-master\source/ff.c **** 		uc = ld_word(dir + LfnOfs[s]);		/* Pick an LFN character */
1926:..\..\FatFS-master\source/ff.c **** 		if (wc != 0) {
1927:..\..\FatFS-master\source/ff.c **** 			if (i >= FF_MAX_LFN) return 0;	/* Buffer overflow? */
ARM GAS  C:\Users\NUSAIR~1\AppData\Local\Temp\ccFqg92r.s 			page 45


1928:..\..\FatFS-master\source/ff.c **** 			lfnbuf[i++] = wc = uc;			/* Store it */
1929:..\..\FatFS-master\source/ff.c **** 		} else {
1930:..\..\FatFS-master\source/ff.c **** 			if (uc != 0xFFFF) return 0;		/* Check filler */
1931:..\..\FatFS-master\source/ff.c **** 		}
1932:..\..\FatFS-master\source/ff.c **** 	}
1933:..\..\FatFS-master\source/ff.c **** 
1934:..\..\FatFS-master\source/ff.c **** 	if (dir[LDIR_Ord] & LLEF) {				/* Put terminator if it is the last LFN part */
1935:..\..\FatFS-master\source/ff.c **** 		if (i >= FF_MAX_LFN) return 0;		/* Buffer overflow? */
1936:..\..\FatFS-master\source/ff.c **** 		lfnbuf[i] = 0;
1937:..\..\FatFS-master\source/ff.c **** 	}
1938:..\..\FatFS-master\source/ff.c **** 
1939:..\..\FatFS-master\source/ff.c **** 	return 1;		/* The part of LFN is valid */
1940:..\..\FatFS-master\source/ff.c **** }
1941:..\..\FatFS-master\source/ff.c **** #endif
1942:..\..\FatFS-master\source/ff.c **** 
1943:..\..\FatFS-master\source/ff.c **** 
1944:..\..\FatFS-master\source/ff.c **** #if !FF_FS_READONLY
1945:..\..\FatFS-master\source/ff.c **** /*-----------------------------------------*/
1946:..\..\FatFS-master\source/ff.c **** /* FAT-LFN: Create an entry of LFN entries */
1947:..\..\FatFS-master\source/ff.c **** /*-----------------------------------------*/
1948:..\..\FatFS-master\source/ff.c **** static
1949:..\..\FatFS-master\source/ff.c **** void put_lfn (
1950:..\..\FatFS-master\source/ff.c **** 	const WCHAR* lfn,	/* Pointer to the LFN */
1951:..\..\FatFS-master\source/ff.c **** 	BYTE* dir,			/* Pointer to the LFN entry to be created */
1952:..\..\FatFS-master\source/ff.c **** 	BYTE ord,			/* LFN order (1-20) */
1953:..\..\FatFS-master\source/ff.c **** 	BYTE sum			/* Checksum of the corresponding SFN */
1954:..\..\FatFS-master\source/ff.c **** )
1955:..\..\FatFS-master\source/ff.c **** {
1956:..\..\FatFS-master\source/ff.c **** 	UINT i, s;
1957:..\..\FatFS-master\source/ff.c **** 	WCHAR wc;
1958:..\..\FatFS-master\source/ff.c **** 
1959:..\..\FatFS-master\source/ff.c **** 
1960:..\..\FatFS-master\source/ff.c **** 	dir[LDIR_Chksum] = sum;			/* Set checksum */
1961:..\..\FatFS-master\source/ff.c **** 	dir[LDIR_Attr] = AM_LFN;		/* Set attribute. LFN entry */
1962:..\..\FatFS-master\source/ff.c **** 	dir[LDIR_Type] = 0;
1963:..\..\FatFS-master\source/ff.c **** 	st_word(dir + LDIR_FstClusLO, 0);
1964:..\..\FatFS-master\source/ff.c **** 
1965:..\..\FatFS-master\source/ff.c **** 	i = (ord - 1) * 13;				/* Get offset in the LFN working buffer */
1966:..\..\FatFS-master\source/ff.c **** 	s = wc = 0;
1967:..\..\FatFS-master\source/ff.c **** 	do {
1968:..\..\FatFS-master\source/ff.c **** 		if (wc != 0xFFFF) wc = lfn[i++];	/* Get an effective character */
1969:..\..\FatFS-master\source/ff.c **** 		st_word(dir + LfnOfs[s], wc);		/* Put it */
1970:..\..\FatFS-master\source/ff.c **** 		if (wc == 0) wc = 0xFFFF;		/* Padding characters for left locations */
1971:..\..\FatFS-master\source/ff.c **** 	} while (++s < 13);
1972:..\..\FatFS-master\source/ff.c **** 	if (wc == 0xFFFF || !lfn[i]) ord |= LLEF;	/* Last LFN part is the start of LFN sequence */
1973:..\..\FatFS-master\source/ff.c **** 	dir[LDIR_Ord] = ord;			/* Set the LFN order */
1974:..\..\FatFS-master\source/ff.c **** }
1975:..\..\FatFS-master\source/ff.c **** 
1976:..\..\FatFS-master\source/ff.c **** #endif	/* !FF_FS_READONLY */
1977:..\..\FatFS-master\source/ff.c **** #endif	/* FF_USE_LFN */
1978:..\..\FatFS-master\source/ff.c **** 
1979:..\..\FatFS-master\source/ff.c **** 
1980:..\..\FatFS-master\source/ff.c **** 
1981:..\..\FatFS-master\source/ff.c **** #if FF_USE_LFN && !FF_FS_READONLY
1982:..\..\FatFS-master\source/ff.c **** /*-----------------------------------------------------------------------*/
1983:..\..\FatFS-master\source/ff.c **** /* FAT-LFN: Create a Numbered SFN                                        */
1984:..\..\FatFS-master\source/ff.c **** /*-----------------------------------------------------------------------*/
ARM GAS  C:\Users\NUSAIR~1\AppData\Local\Temp\ccFqg92r.s 			page 46


1985:..\..\FatFS-master\source/ff.c **** 
1986:..\..\FatFS-master\source/ff.c **** static
1987:..\..\FatFS-master\source/ff.c **** void gen_numname (
1988:..\..\FatFS-master\source/ff.c **** 	BYTE* dst,			/* Pointer to the buffer to store numbered SFN */
1989:..\..\FatFS-master\source/ff.c **** 	const BYTE* src,	/* Pointer to SFN */
1990:..\..\FatFS-master\source/ff.c **** 	const WCHAR* lfn,	/* Pointer to LFN */
1991:..\..\FatFS-master\source/ff.c **** 	UINT seq			/* Sequence number */
1992:..\..\FatFS-master\source/ff.c **** )
1993:..\..\FatFS-master\source/ff.c **** {
1994:..\..\FatFS-master\source/ff.c **** 	BYTE ns[8], c;
1995:..\..\FatFS-master\source/ff.c **** 	UINT i, j;
1996:..\..\FatFS-master\source/ff.c **** 	WCHAR wc;
1997:..\..\FatFS-master\source/ff.c **** 	DWORD sr;
1998:..\..\FatFS-master\source/ff.c **** 
1999:..\..\FatFS-master\source/ff.c **** 
2000:..\..\FatFS-master\source/ff.c **** 	mem_cpy(dst, src, 11);
2001:..\..\FatFS-master\source/ff.c **** 
2002:..\..\FatFS-master\source/ff.c **** 	if (seq > 5) {	/* In case of many collisions, generate a hash number instead of sequential number 
2003:..\..\FatFS-master\source/ff.c **** 		sr = seq;
2004:..\..\FatFS-master\source/ff.c **** 		while (*lfn) {	/* Create a CRC */
2005:..\..\FatFS-master\source/ff.c **** 			wc = *lfn++;
2006:..\..\FatFS-master\source/ff.c **** 			for (i = 0; i < 16; i++) {
2007:..\..\FatFS-master\source/ff.c **** 				sr = (sr << 1) + (wc & 1);
2008:..\..\FatFS-master\source/ff.c **** 				wc >>= 1;
2009:..\..\FatFS-master\source/ff.c **** 				if (sr & 0x10000) sr ^= 0x11021;
2010:..\..\FatFS-master\source/ff.c **** 			}
2011:..\..\FatFS-master\source/ff.c **** 		}
2012:..\..\FatFS-master\source/ff.c **** 		seq = (UINT)sr;
2013:..\..\FatFS-master\source/ff.c **** 	}
2014:..\..\FatFS-master\source/ff.c **** 
2015:..\..\FatFS-master\source/ff.c **** 	/* itoa (hexdecimal) */
2016:..\..\FatFS-master\source/ff.c **** 	i = 7;
2017:..\..\FatFS-master\source/ff.c **** 	do {
2018:..\..\FatFS-master\source/ff.c **** 		c = (BYTE)((seq % 16) + '0');
2019:..\..\FatFS-master\source/ff.c **** 		if (c > '9') c += 7;
2020:..\..\FatFS-master\source/ff.c **** 		ns[i--] = c;
2021:..\..\FatFS-master\source/ff.c **** 		seq /= 16;
2022:..\..\FatFS-master\source/ff.c **** 	} while (seq);
2023:..\..\FatFS-master\source/ff.c **** 	ns[i] = '~';
2024:..\..\FatFS-master\source/ff.c **** 
2025:..\..\FatFS-master\source/ff.c **** 	/* Append the number to the SFN body */
2026:..\..\FatFS-master\source/ff.c **** 	for (j = 0; j < i && dst[j] != ' '; j++) {
2027:..\..\FatFS-master\source/ff.c **** 		if (dbc_1st(dst[j])) {
2028:..\..\FatFS-master\source/ff.c **** 			if (j == i - 1) break;
2029:..\..\FatFS-master\source/ff.c **** 			j++;
2030:..\..\FatFS-master\source/ff.c **** 		}
2031:..\..\FatFS-master\source/ff.c **** 	}
2032:..\..\FatFS-master\source/ff.c **** 	do {
2033:..\..\FatFS-master\source/ff.c **** 		dst[j++] = (i < 8) ? ns[i++] : ' ';
2034:..\..\FatFS-master\source/ff.c **** 	} while (j < 8);
2035:..\..\FatFS-master\source/ff.c **** }
2036:..\..\FatFS-master\source/ff.c **** #endif	/* FF_USE_LFN && !FF_FS_READONLY */
2037:..\..\FatFS-master\source/ff.c **** 
2038:..\..\FatFS-master\source/ff.c **** 
2039:..\..\FatFS-master\source/ff.c **** 
2040:..\..\FatFS-master\source/ff.c **** #if FF_USE_LFN
2041:..\..\FatFS-master\source/ff.c **** /*-----------------------------------------------------------------------*/
ARM GAS  C:\Users\NUSAIR~1\AppData\Local\Temp\ccFqg92r.s 			page 47


2042:..\..\FatFS-master\source/ff.c **** /* FAT-LFN: Calculate checksum of an SFN entry                           */
2043:..\..\FatFS-master\source/ff.c **** /*-----------------------------------------------------------------------*/
2044:..\..\FatFS-master\source/ff.c **** 
2045:..\..\FatFS-master\source/ff.c **** static
2046:..\..\FatFS-master\source/ff.c **** BYTE sum_sfn (
2047:..\..\FatFS-master\source/ff.c **** 	const BYTE* dir		/* Pointer to the SFN entry */
2048:..\..\FatFS-master\source/ff.c **** )
2049:..\..\FatFS-master\source/ff.c **** {
2050:..\..\FatFS-master\source/ff.c **** 	BYTE sum = 0;
2051:..\..\FatFS-master\source/ff.c **** 	UINT n = 11;
2052:..\..\FatFS-master\source/ff.c **** 
2053:..\..\FatFS-master\source/ff.c **** 	do {
2054:..\..\FatFS-master\source/ff.c **** 		sum = (sum >> 1) + (sum << 7) + *dir++;
2055:..\..\FatFS-master\source/ff.c **** 	} while (--n);
2056:..\..\FatFS-master\source/ff.c **** 	return sum;
2057:..\..\FatFS-master\source/ff.c **** }
2058:..\..\FatFS-master\source/ff.c **** 
2059:..\..\FatFS-master\source/ff.c **** #endif	/* FF_USE_LFN */
2060:..\..\FatFS-master\source/ff.c **** 
2061:..\..\FatFS-master\source/ff.c **** 
2062:..\..\FatFS-master\source/ff.c **** 
2063:..\..\FatFS-master\source/ff.c **** #if FF_FS_EXFAT
2064:..\..\FatFS-master\source/ff.c **** /*-----------------------------------------------------------------------*/
2065:..\..\FatFS-master\source/ff.c **** /* exFAT: Checksum                                                       */
2066:..\..\FatFS-master\source/ff.c **** /*-----------------------------------------------------------------------*/
2067:..\..\FatFS-master\source/ff.c **** 
2068:..\..\FatFS-master\source/ff.c **** static
2069:..\..\FatFS-master\source/ff.c **** WORD xdir_sum (			/* Get checksum of the directoly entry block */
2070:..\..\FatFS-master\source/ff.c **** 	const BYTE* dir		/* Directory entry block to be calculated */
2071:..\..\FatFS-master\source/ff.c **** )
2072:..\..\FatFS-master\source/ff.c **** {
2073:..\..\FatFS-master\source/ff.c **** 	UINT i, szblk;
2074:..\..\FatFS-master\source/ff.c **** 	WORD sum;
2075:..\..\FatFS-master\source/ff.c **** 
2076:..\..\FatFS-master\source/ff.c **** 
2077:..\..\FatFS-master\source/ff.c **** 	szblk = (dir[XDIR_NumSec] + 1) * SZDIRE;
2078:..\..\FatFS-master\source/ff.c **** 	for (i = sum = 0; i < szblk; i++) {
2079:..\..\FatFS-master\source/ff.c **** 		if (i == XDIR_SetSum) {	/* Skip sum field */
2080:..\..\FatFS-master\source/ff.c **** 			i++;
2081:..\..\FatFS-master\source/ff.c **** 		} else {
2082:..\..\FatFS-master\source/ff.c **** 			sum = ((sum & 1) ? 0x8000 : 0) + (sum >> 1) + dir[i];
2083:..\..\FatFS-master\source/ff.c **** 		}
2084:..\..\FatFS-master\source/ff.c **** 	}
2085:..\..\FatFS-master\source/ff.c **** 	return sum;
2086:..\..\FatFS-master\source/ff.c **** }
2087:..\..\FatFS-master\source/ff.c **** 
2088:..\..\FatFS-master\source/ff.c **** 
2089:..\..\FatFS-master\source/ff.c **** 
2090:..\..\FatFS-master\source/ff.c **** static
2091:..\..\FatFS-master\source/ff.c **** WORD xname_sum (		/* Get check sum (to be used as hash) of the name */
2092:..\..\FatFS-master\source/ff.c **** 	const WCHAR* name	/* File name to be calculated */
2093:..\..\FatFS-master\source/ff.c **** )
2094:..\..\FatFS-master\source/ff.c **** {
2095:..\..\FatFS-master\source/ff.c **** 	WCHAR chr;
2096:..\..\FatFS-master\source/ff.c **** 	WORD sum = 0;
2097:..\..\FatFS-master\source/ff.c **** 
2098:..\..\FatFS-master\source/ff.c **** 
ARM GAS  C:\Users\NUSAIR~1\AppData\Local\Temp\ccFqg92r.s 			page 48


2099:..\..\FatFS-master\source/ff.c **** 	while ((chr = *name++) != 0) {
2100:..\..\FatFS-master\source/ff.c **** 		chr = (WCHAR)ff_wtoupper(chr);		/* File name needs to be upper-case converted */
2101:..\..\FatFS-master\source/ff.c **** 		sum = ((sum & 1) ? 0x8000 : 0) + (sum >> 1) + (chr & 0xFF);
2102:..\..\FatFS-master\source/ff.c **** 		sum = ((sum & 1) ? 0x8000 : 0) + (sum >> 1) + (chr >> 8);
2103:..\..\FatFS-master\source/ff.c **** 	}
2104:..\..\FatFS-master\source/ff.c **** 	return sum;
2105:..\..\FatFS-master\source/ff.c **** }
2106:..\..\FatFS-master\source/ff.c **** 
2107:..\..\FatFS-master\source/ff.c **** 
2108:..\..\FatFS-master\source/ff.c **** #if !FF_FS_READONLY && FF_USE_MKFS
2109:..\..\FatFS-master\source/ff.c **** static
2110:..\..\FatFS-master\source/ff.c **** DWORD xsum32 (
2111:..\..\FatFS-master\source/ff.c **** 	BYTE  dat,	/* Byte to be calculated */
2112:..\..\FatFS-master\source/ff.c **** 	DWORD sum	/* Previous sum */
2113:..\..\FatFS-master\source/ff.c **** )
2114:..\..\FatFS-master\source/ff.c **** {
2115:..\..\FatFS-master\source/ff.c **** 	sum = ((sum & 1) ? 0x80000000 : 0) + (sum >> 1) + dat;
2116:..\..\FatFS-master\source/ff.c **** 	return sum;
2117:..\..\FatFS-master\source/ff.c **** }
2118:..\..\FatFS-master\source/ff.c **** #endif
2119:..\..\FatFS-master\source/ff.c **** 
2120:..\..\FatFS-master\source/ff.c **** 
2121:..\..\FatFS-master\source/ff.c **** #if FF_FS_MINIMIZE <= 1 || FF_FS_RPATH >= 2
2122:..\..\FatFS-master\source/ff.c **** /*------------------------------------------------------*/
2123:..\..\FatFS-master\source/ff.c **** /* exFAT: Get object information from a directory block */
2124:..\..\FatFS-master\source/ff.c **** /*------------------------------------------------------*/
2125:..\..\FatFS-master\source/ff.c **** 
2126:..\..\FatFS-master\source/ff.c **** static
2127:..\..\FatFS-master\source/ff.c **** void get_xfileinfo (
2128:..\..\FatFS-master\source/ff.c **** 	BYTE* dirb,			/* Pointer to the direcotry entry block 85+C0+C1s */
2129:..\..\FatFS-master\source/ff.c **** 	FILINFO* fno		/* Buffer to store the extracted file information */
2130:..\..\FatFS-master\source/ff.c **** )
2131:..\..\FatFS-master\source/ff.c **** {
2132:..\..\FatFS-master\source/ff.c **** 	WCHAR wc, hs;
2133:..\..\FatFS-master\source/ff.c **** 	UINT di, si, nc;
2134:..\..\FatFS-master\source/ff.c **** 
2135:..\..\FatFS-master\source/ff.c **** 	/* Get file name from the entry block */
2136:..\..\FatFS-master\source/ff.c **** 	si = SZDIRE * 2;	/* 1st C1 entry */
2137:..\..\FatFS-master\source/ff.c **** 	nc = hs = di = 0;
2138:..\..\FatFS-master\source/ff.c **** 	while (nc < dirb[XDIR_NumName]) {
2139:..\..\FatFS-master\source/ff.c **** 		if (si >= MAXDIRB(FF_MAX_LFN)) { di = 0; break; }	/* Truncated directory block? */
2140:..\..\FatFS-master\source/ff.c **** 		if ((si % SZDIRE) == 0) si += 2;		/* Skip entry type field */
2141:..\..\FatFS-master\source/ff.c **** 		wc = ld_word(dirb + si); si += 2; nc++;	/* Get a character */
2142:..\..\FatFS-master\source/ff.c **** 		if (hs == 0 && IsSurrogate(wc)) {	/* Is it a surrogate? */
2143:..\..\FatFS-master\source/ff.c **** 			hs = wc; continue;	/* Get low surrogate */
2144:..\..\FatFS-master\source/ff.c **** 		}
2145:..\..\FatFS-master\source/ff.c **** 		wc = put_utf((DWORD)hs << 16 | wc, &fno->fname[di], FF_LFN_BUF - di);	/* Store it in UTF-16 or UT
2146:..\..\FatFS-master\source/ff.c **** 		if (wc == 0) { di = 0; break; }	/* Buffer overflow or wrong encoding? */
2147:..\..\FatFS-master\source/ff.c **** 		di += wc;
2148:..\..\FatFS-master\source/ff.c **** 		hs = 0;
2149:..\..\FatFS-master\source/ff.c **** 	}
2150:..\..\FatFS-master\source/ff.c **** 	if (hs != 0) di = 0;					/* Broken surrogate pair? */
2151:..\..\FatFS-master\source/ff.c **** 	if (di == 0) fno->fname[di++] = '?';	/* Inaccessible object name? */
2152:..\..\FatFS-master\source/ff.c **** 	fno->fname[di] = 0;						/* Terminate the name */
2153:..\..\FatFS-master\source/ff.c **** 	fno->altname[0] = 0;					/* exFAT does not have SFN */
2154:..\..\FatFS-master\source/ff.c **** 
2155:..\..\FatFS-master\source/ff.c **** 	fno->fattrib = dirb[XDIR_Attr];			/* Attribute */
ARM GAS  C:\Users\NUSAIR~1\AppData\Local\Temp\ccFqg92r.s 			page 49


2156:..\..\FatFS-master\source/ff.c **** 	fno->fsize = (fno->fattrib & AM_DIR) ? 0 : ld_qword(dirb + XDIR_FileSize);	/* Size */
2157:..\..\FatFS-master\source/ff.c **** 	fno->ftime = ld_word(dirb + XDIR_ModTime + 0);	/* Time */
2158:..\..\FatFS-master\source/ff.c **** 	fno->fdate = ld_word(dirb + XDIR_ModTime + 2);	/* Date */
2159:..\..\FatFS-master\source/ff.c **** }
2160:..\..\FatFS-master\source/ff.c **** 
2161:..\..\FatFS-master\source/ff.c **** #endif	/* FF_FS_MINIMIZE <= 1 || FF_FS_RPATH >= 2 */
2162:..\..\FatFS-master\source/ff.c **** 
2163:..\..\FatFS-master\source/ff.c **** 
2164:..\..\FatFS-master\source/ff.c **** /*-----------------------------------*/
2165:..\..\FatFS-master\source/ff.c **** /* exFAT: Get a directry entry block */
2166:..\..\FatFS-master\source/ff.c **** /*-----------------------------------*/
2167:..\..\FatFS-master\source/ff.c **** 
2168:..\..\FatFS-master\source/ff.c **** static
2169:..\..\FatFS-master\source/ff.c **** FRESULT load_xdir (	/* FR_INT_ERR: invalid entry block */
2170:..\..\FatFS-master\source/ff.c **** 	DIR* dp			/* Reading direcotry object pointing top of the entry block to load */
2171:..\..\FatFS-master\source/ff.c **** )
2172:..\..\FatFS-master\source/ff.c **** {
2173:..\..\FatFS-master\source/ff.c **** 	FRESULT res;
2174:..\..\FatFS-master\source/ff.c **** 	UINT i, sz_ent;
2175:..\..\FatFS-master\source/ff.c **** 	BYTE* dirb = dp->obj.fs->dirbuf;	/* Pointer to the on-memory direcotry entry block 85+C0+C1s */
2176:..\..\FatFS-master\source/ff.c **** 
2177:..\..\FatFS-master\source/ff.c **** 
2178:..\..\FatFS-master\source/ff.c **** 	/* Load 85 entry */
2179:..\..\FatFS-master\source/ff.c **** 	res = move_window(dp->obj.fs, dp->sect);
2180:..\..\FatFS-master\source/ff.c **** 	if (res != FR_OK) return res;
2181:..\..\FatFS-master\source/ff.c **** 	if (dp->dir[XDIR_Type] != 0x85) return FR_INT_ERR;	/* Invalid order */
2182:..\..\FatFS-master\source/ff.c **** 	mem_cpy(dirb + 0 * SZDIRE, dp->dir, SZDIRE);
2183:..\..\FatFS-master\source/ff.c **** 	sz_ent = (dirb[XDIR_NumSec] + 1) * SZDIRE;
2184:..\..\FatFS-master\source/ff.c **** 	if (sz_ent < 3 * SZDIRE || sz_ent > 19 * SZDIRE) return FR_INT_ERR;
2185:..\..\FatFS-master\source/ff.c **** 
2186:..\..\FatFS-master\source/ff.c **** 	/* Load C0 entry */
2187:..\..\FatFS-master\source/ff.c **** 	res = dir_next(dp, 0);
2188:..\..\FatFS-master\source/ff.c **** 	if (res == FR_NO_FILE) res = FR_INT_ERR;	/* It cannot be */
2189:..\..\FatFS-master\source/ff.c **** 	if (res != FR_OK) return res;
2190:..\..\FatFS-master\source/ff.c **** 	res = move_window(dp->obj.fs, dp->sect);
2191:..\..\FatFS-master\source/ff.c **** 	if (res != FR_OK) return res;
2192:..\..\FatFS-master\source/ff.c **** 	if (dp->dir[XDIR_Type] != 0xC0) return FR_INT_ERR;	/* Invalid order */
2193:..\..\FatFS-master\source/ff.c **** 	mem_cpy(dirb + 1 * SZDIRE, dp->dir, SZDIRE);
2194:..\..\FatFS-master\source/ff.c **** 	if (MAXDIRB(dirb[XDIR_NumName]) > sz_ent) return FR_INT_ERR;
2195:..\..\FatFS-master\source/ff.c **** 
2196:..\..\FatFS-master\source/ff.c **** 	/* Load C1 entries */
2197:..\..\FatFS-master\source/ff.c **** 	i = 2 * SZDIRE;	/* C1 offset to load */
2198:..\..\FatFS-master\source/ff.c **** 	do {
2199:..\..\FatFS-master\source/ff.c **** 		res = dir_next(dp, 0);
2200:..\..\FatFS-master\source/ff.c **** 		if (res == FR_NO_FILE) res = FR_INT_ERR;	/* It cannot be */
2201:..\..\FatFS-master\source/ff.c **** 		if (res != FR_OK) return res;
2202:..\..\FatFS-master\source/ff.c **** 		res = move_window(dp->obj.fs, dp->sect);
2203:..\..\FatFS-master\source/ff.c **** 		if (res != FR_OK) return res;
2204:..\..\FatFS-master\source/ff.c **** 		if (dp->dir[XDIR_Type] != 0xC1) return FR_INT_ERR;	/* Invalid order */
2205:..\..\FatFS-master\source/ff.c **** 		if (i < MAXDIRB(FF_MAX_LFN)) mem_cpy(dirb + i, dp->dir, SZDIRE);
2206:..\..\FatFS-master\source/ff.c **** 	} while ((i += SZDIRE) < sz_ent);
2207:..\..\FatFS-master\source/ff.c **** 
2208:..\..\FatFS-master\source/ff.c **** 	/* Sanity check (do it for only accessible object) */
2209:..\..\FatFS-master\source/ff.c **** 	if (i <= MAXDIRB(FF_MAX_LFN)) {
2210:..\..\FatFS-master\source/ff.c **** 		if (xdir_sum(dirb) != ld_word(dirb + XDIR_SetSum)) return FR_INT_ERR;
2211:..\..\FatFS-master\source/ff.c **** 	}
2212:..\..\FatFS-master\source/ff.c **** 	return FR_OK;
ARM GAS  C:\Users\NUSAIR~1\AppData\Local\Temp\ccFqg92r.s 			page 50


2213:..\..\FatFS-master\source/ff.c **** }
2214:..\..\FatFS-master\source/ff.c **** 
2215:..\..\FatFS-master\source/ff.c **** 
2216:..\..\FatFS-master\source/ff.c **** /*------------------------------------------------------------------*/
2217:..\..\FatFS-master\source/ff.c **** /* exFAT: Initialize object allocation info with loaded entry block */
2218:..\..\FatFS-master\source/ff.c **** /*------------------------------------------------------------------*/
2219:..\..\FatFS-master\source/ff.c **** 
2220:..\..\FatFS-master\source/ff.c **** static
2221:..\..\FatFS-master\source/ff.c **** void init_alloc_info (
2222:..\..\FatFS-master\source/ff.c **** 	FATFS* fs,		/* Filesystem object */
2223:..\..\FatFS-master\source/ff.c **** 	FFOBJID* obj	/* Object allocation information to be initialized */
2224:..\..\FatFS-master\source/ff.c **** )
2225:..\..\FatFS-master\source/ff.c **** {
2226:..\..\FatFS-master\source/ff.c **** 	obj->sclust = ld_dword(fs->dirbuf + XDIR_FstClus);		/* Start cluster */
2227:..\..\FatFS-master\source/ff.c **** 	obj->objsize = ld_qword(fs->dirbuf + XDIR_FileSize);	/* Size */
2228:..\..\FatFS-master\source/ff.c **** 	obj->stat = fs->dirbuf[XDIR_GenFlags] & 2;				/* Allocation status */
2229:..\..\FatFS-master\source/ff.c **** 	obj->n_frag = 0;										/* No last fragment info */
2230:..\..\FatFS-master\source/ff.c **** }
2231:..\..\FatFS-master\source/ff.c **** 
2232:..\..\FatFS-master\source/ff.c **** 
2233:..\..\FatFS-master\source/ff.c **** 
2234:..\..\FatFS-master\source/ff.c **** #if !FF_FS_READONLY || FF_FS_RPATH != 0
2235:..\..\FatFS-master\source/ff.c **** /*------------------------------------------------*/
2236:..\..\FatFS-master\source/ff.c **** /* exFAT: Load the object's directory entry block */
2237:..\..\FatFS-master\source/ff.c **** /*------------------------------------------------*/
2238:..\..\FatFS-master\source/ff.c **** static
2239:..\..\FatFS-master\source/ff.c **** FRESULT load_obj_xdir (	
2240:..\..\FatFS-master\source/ff.c **** 	DIR* dp,			/* Blank directory object to be used to access containing direcotry */
2241:..\..\FatFS-master\source/ff.c **** 	const FFOBJID* obj	/* Object with its containing directory information */
2242:..\..\FatFS-master\source/ff.c **** )
2243:..\..\FatFS-master\source/ff.c **** {
2244:..\..\FatFS-master\source/ff.c **** 	FRESULT res;
2245:..\..\FatFS-master\source/ff.c **** 
2246:..\..\FatFS-master\source/ff.c **** 	/* Open object containing directory */
2247:..\..\FatFS-master\source/ff.c **** 	dp->obj.fs = obj->fs;
2248:..\..\FatFS-master\source/ff.c **** 	dp->obj.sclust = obj->c_scl;
2249:..\..\FatFS-master\source/ff.c **** 	dp->obj.stat = (BYTE)obj->c_size;
2250:..\..\FatFS-master\source/ff.c **** 	dp->obj.objsize = obj->c_size & 0xFFFFFF00;
2251:..\..\FatFS-master\source/ff.c **** 	dp->obj.n_frag = 0;
2252:..\..\FatFS-master\source/ff.c **** 	dp->blk_ofs = obj->c_ofs;
2253:..\..\FatFS-master\source/ff.c **** 
2254:..\..\FatFS-master\source/ff.c **** 	res = dir_sdi(dp, dp->blk_ofs);	/* Goto object's entry block */
2255:..\..\FatFS-master\source/ff.c **** 	if (res == FR_OK) {
2256:..\..\FatFS-master\source/ff.c **** 		res = load_xdir(dp);		/* Load the object's entry block */
2257:..\..\FatFS-master\source/ff.c **** 	}
2258:..\..\FatFS-master\source/ff.c **** 	return res;
2259:..\..\FatFS-master\source/ff.c **** }
2260:..\..\FatFS-master\source/ff.c **** #endif
2261:..\..\FatFS-master\source/ff.c **** 
2262:..\..\FatFS-master\source/ff.c **** 
2263:..\..\FatFS-master\source/ff.c **** #if !FF_FS_READONLY
2264:..\..\FatFS-master\source/ff.c **** /*----------------------------------------*/
2265:..\..\FatFS-master\source/ff.c **** /* exFAT: Store the directory entry block */
2266:..\..\FatFS-master\source/ff.c **** /*----------------------------------------*/
2267:..\..\FatFS-master\source/ff.c **** static
2268:..\..\FatFS-master\source/ff.c **** FRESULT store_xdir (
2269:..\..\FatFS-master\source/ff.c **** 	DIR* dp				/* Pointer to the direcotry object */
ARM GAS  C:\Users\NUSAIR~1\AppData\Local\Temp\ccFqg92r.s 			page 51


2270:..\..\FatFS-master\source/ff.c **** )
2271:..\..\FatFS-master\source/ff.c **** {
2272:..\..\FatFS-master\source/ff.c **** 	FRESULT res;
2273:..\..\FatFS-master\source/ff.c **** 	UINT nent;
2274:..\..\FatFS-master\source/ff.c **** 	BYTE* dirb = dp->obj.fs->dirbuf;	/* Pointer to the direcotry entry block 85+C0+C1s */
2275:..\..\FatFS-master\source/ff.c **** 
2276:..\..\FatFS-master\source/ff.c **** 	/* Create set sum */
2277:..\..\FatFS-master\source/ff.c **** 	st_word(dirb + XDIR_SetSum, xdir_sum(dirb));
2278:..\..\FatFS-master\source/ff.c **** 	nent = dirb[XDIR_NumSec] + 1;
2279:..\..\FatFS-master\source/ff.c **** 
2280:..\..\FatFS-master\source/ff.c **** 	/* Store the direcotry entry block to the directory */
2281:..\..\FatFS-master\source/ff.c **** 	res = dir_sdi(dp, dp->blk_ofs);
2282:..\..\FatFS-master\source/ff.c **** 	while (res == FR_OK) {
2283:..\..\FatFS-master\source/ff.c **** 		res = move_window(dp->obj.fs, dp->sect);
2284:..\..\FatFS-master\source/ff.c **** 		if (res != FR_OK) break;
2285:..\..\FatFS-master\source/ff.c **** 		mem_cpy(dp->dir, dirb, SZDIRE);
2286:..\..\FatFS-master\source/ff.c **** 		dp->obj.fs->wflag = 1;
2287:..\..\FatFS-master\source/ff.c **** 		if (--nent == 0) break;
2288:..\..\FatFS-master\source/ff.c **** 		dirb += SZDIRE;
2289:..\..\FatFS-master\source/ff.c **** 		res = dir_next(dp, 0);
2290:..\..\FatFS-master\source/ff.c **** 	}
2291:..\..\FatFS-master\source/ff.c **** 	return (res == FR_OK || res == FR_DISK_ERR) ? res : FR_INT_ERR;
2292:..\..\FatFS-master\source/ff.c **** }
2293:..\..\FatFS-master\source/ff.c **** 
2294:..\..\FatFS-master\source/ff.c **** 
2295:..\..\FatFS-master\source/ff.c **** 
2296:..\..\FatFS-master\source/ff.c **** /*-------------------------------------------*/
2297:..\..\FatFS-master\source/ff.c **** /* exFAT: Create a new directory enrty block */
2298:..\..\FatFS-master\source/ff.c **** /*-------------------------------------------*/
2299:..\..\FatFS-master\source/ff.c **** 
2300:..\..\FatFS-master\source/ff.c **** static
2301:..\..\FatFS-master\source/ff.c **** void create_xdir (
2302:..\..\FatFS-master\source/ff.c **** 	BYTE* dirb,			/* Pointer to the direcotry entry block buffer */
2303:..\..\FatFS-master\source/ff.c **** 	const WCHAR* lfn	/* Pointer to the object name */
2304:..\..\FatFS-master\source/ff.c **** )
2305:..\..\FatFS-master\source/ff.c **** {
2306:..\..\FatFS-master\source/ff.c **** 	UINT i;
2307:..\..\FatFS-master\source/ff.c **** 	BYTE nc1, nlen;
2308:..\..\FatFS-master\source/ff.c **** 	WCHAR wc;
2309:..\..\FatFS-master\source/ff.c **** 
2310:..\..\FatFS-master\source/ff.c **** 
2311:..\..\FatFS-master\source/ff.c **** 	/* Create 85,C0 entry */
2312:..\..\FatFS-master\source/ff.c **** 	mem_set(dirb, 0, 2 * SZDIRE);
2313:..\..\FatFS-master\source/ff.c **** 	dirb[0 * SZDIRE + XDIR_Type] = 0x85;	/* 85 entry */
2314:..\..\FatFS-master\source/ff.c **** 	dirb[1 * SZDIRE + XDIR_Type] = 0xC0;	/* C0 entry */
2315:..\..\FatFS-master\source/ff.c **** 
2316:..\..\FatFS-master\source/ff.c **** 	/* Create C1 entries */
2317:..\..\FatFS-master\source/ff.c **** 	i = SZDIRE * 2;	/* Top of C1 entries */
2318:..\..\FatFS-master\source/ff.c **** 	nlen = nc1 = 0; wc = 1;
2319:..\..\FatFS-master\source/ff.c **** 	do {
2320:..\..\FatFS-master\source/ff.c **** 		dirb[i++] = 0xC1; dirb[i++] = 0;	/* Entry type C1 */
2321:..\..\FatFS-master\source/ff.c **** 		do {	/* Fill name field */
2322:..\..\FatFS-master\source/ff.c **** 			if (wc != 0 && (wc = lfn[nlen]) != 0) nlen++;	/* Get a character if exist */
2323:..\..\FatFS-master\source/ff.c **** 			st_word(dirb + i, wc); 		/* Store it */
2324:..\..\FatFS-master\source/ff.c **** 			i += 2;
2325:..\..\FatFS-master\source/ff.c **** 		} while (i % SZDIRE != 0);
2326:..\..\FatFS-master\source/ff.c **** 		nc1++;
ARM GAS  C:\Users\NUSAIR~1\AppData\Local\Temp\ccFqg92r.s 			page 52


2327:..\..\FatFS-master\source/ff.c **** 	} while (lfn[nlen]);	/* Fill next entry if any char follows */
2328:..\..\FatFS-master\source/ff.c **** 
2329:..\..\FatFS-master\source/ff.c **** 	dirb[XDIR_NumName] = nlen;		/* Set name length */
2330:..\..\FatFS-master\source/ff.c **** 	dirb[XDIR_NumSec] = 1 + nc1;	/* Set secondary count (C0 + C1s) */
2331:..\..\FatFS-master\source/ff.c **** 	st_word(dirb + XDIR_NameHash, xname_sum(lfn));	/* Set name hash */
2332:..\..\FatFS-master\source/ff.c **** }
2333:..\..\FatFS-master\source/ff.c **** 
2334:..\..\FatFS-master\source/ff.c **** #endif	/* !FF_FS_READONLY */
2335:..\..\FatFS-master\source/ff.c **** #endif	/* FF_FS_EXFAT */
2336:..\..\FatFS-master\source/ff.c **** 
2337:..\..\FatFS-master\source/ff.c **** 
2338:..\..\FatFS-master\source/ff.c **** 
2339:..\..\FatFS-master\source/ff.c **** #if FF_FS_MINIMIZE <= 1 || FF_FS_RPATH >= 2 || FF_USE_LABEL || FF_FS_EXFAT
2340:..\..\FatFS-master\source/ff.c **** /*-----------------------------------------------------------------------*/
2341:..\..\FatFS-master\source/ff.c **** /* Read an object from the directory                                     */
2342:..\..\FatFS-master\source/ff.c **** /*-----------------------------------------------------------------------*/
2343:..\..\FatFS-master\source/ff.c **** 
2344:..\..\FatFS-master\source/ff.c **** #define dir_read_file(dp) dir_read(dp, 0)
2345:..\..\FatFS-master\source/ff.c **** #define dir_read_label(dp) dir_read(dp, 1)
2346:..\..\FatFS-master\source/ff.c **** 
2347:..\..\FatFS-master\source/ff.c **** static
2348:..\..\FatFS-master\source/ff.c **** FRESULT dir_read (
2349:..\..\FatFS-master\source/ff.c **** 	DIR* dp,		/* Pointer to the directory object */
2350:..\..\FatFS-master\source/ff.c **** 	int vol			/* Filtered by 0:file/directory or 1:volume label */
2351:..\..\FatFS-master\source/ff.c **** )
2352:..\..\FatFS-master\source/ff.c **** {
2353:..\..\FatFS-master\source/ff.c **** 	FRESULT res = FR_NO_FILE;
2354:..\..\FatFS-master\source/ff.c **** 	FATFS *fs = dp->obj.fs;
2355:..\..\FatFS-master\source/ff.c **** 	BYTE a, c;
2356:..\..\FatFS-master\source/ff.c **** #if FF_USE_LFN
2357:..\..\FatFS-master\source/ff.c **** 	BYTE ord = 0xFF, sum = 0xFF;
2358:..\..\FatFS-master\source/ff.c **** #endif
2359:..\..\FatFS-master\source/ff.c **** 
2360:..\..\FatFS-master\source/ff.c **** 	while (dp->sect) {
2361:..\..\FatFS-master\source/ff.c **** 		res = move_window(fs, dp->sect);
2362:..\..\FatFS-master\source/ff.c **** 		if (res != FR_OK) break;
2363:..\..\FatFS-master\source/ff.c **** 		c = dp->dir[DIR_Name];	/* Test for the entry type */
2364:..\..\FatFS-master\source/ff.c **** 		if (c == 0) {
2365:..\..\FatFS-master\source/ff.c **** 			res = FR_NO_FILE; break; /* Reached to end of the directory */
2366:..\..\FatFS-master\source/ff.c **** 		}
2367:..\..\FatFS-master\source/ff.c **** #if FF_FS_EXFAT
2368:..\..\FatFS-master\source/ff.c **** 		if (fs->fs_type == FS_EXFAT) {	/* On the exFAT volume */
2369:..\..\FatFS-master\source/ff.c **** 			if (FF_USE_LABEL && vol) {
2370:..\..\FatFS-master\source/ff.c **** 				if (c == 0x83) break;	/* Volume label entry? */
2371:..\..\FatFS-master\source/ff.c **** 			} else {
2372:..\..\FatFS-master\source/ff.c **** 				if (c == 0x85) {		/* Start of the file entry block? */
2373:..\..\FatFS-master\source/ff.c **** 					dp->blk_ofs = dp->dptr;	/* Get location of the block */
2374:..\..\FatFS-master\source/ff.c **** 					res = load_xdir(dp);	/* Load the entry block */
2375:..\..\FatFS-master\source/ff.c **** 					if (res == FR_OK) {
2376:..\..\FatFS-master\source/ff.c **** 						dp->obj.attr = fs->dirbuf[XDIR_Attr] & AM_MASK;	/* Get attribute */
2377:..\..\FatFS-master\source/ff.c **** 					}
2378:..\..\FatFS-master\source/ff.c **** 					break;
2379:..\..\FatFS-master\source/ff.c **** 				}
2380:..\..\FatFS-master\source/ff.c **** 			}
2381:..\..\FatFS-master\source/ff.c **** 		} else
2382:..\..\FatFS-master\source/ff.c **** #endif
2383:..\..\FatFS-master\source/ff.c **** 		{	/* On the FAT/FAT32 volume */
ARM GAS  C:\Users\NUSAIR~1\AppData\Local\Temp\ccFqg92r.s 			page 53


2384:..\..\FatFS-master\source/ff.c **** 			dp->obj.attr = a = dp->dir[DIR_Attr] & AM_MASK;	/* Get attribute */
2385:..\..\FatFS-master\source/ff.c **** #if FF_USE_LFN		/* LFN configuration */
2386:..\..\FatFS-master\source/ff.c **** 			if (c == DDEM || c == '.' || (int)((a & ~AM_ARC) == AM_VOL) != vol) {	/* An entry without valid 
2387:..\..\FatFS-master\source/ff.c **** 				ord = 0xFF;
2388:..\..\FatFS-master\source/ff.c **** 			} else {
2389:..\..\FatFS-master\source/ff.c **** 				if (a == AM_LFN) {			/* An LFN entry is found */
2390:..\..\FatFS-master\source/ff.c **** 					if (c & LLEF) {			/* Is it start of an LFN sequence? */
2391:..\..\FatFS-master\source/ff.c **** 						sum = dp->dir[LDIR_Chksum];
2392:..\..\FatFS-master\source/ff.c **** 						c &= (BYTE)~LLEF; ord = c;
2393:..\..\FatFS-master\source/ff.c **** 						dp->blk_ofs = dp->dptr;
2394:..\..\FatFS-master\source/ff.c **** 					}
2395:..\..\FatFS-master\source/ff.c **** 					/* Check LFN validity and capture it */
2396:..\..\FatFS-master\source/ff.c **** 					ord = (c == ord && sum == dp->dir[LDIR_Chksum] && pick_lfn(fs->lfnbuf, dp->dir)) ? ord - 1 : 0
2397:..\..\FatFS-master\source/ff.c **** 				} else {					/* An SFN entry is found */
2398:..\..\FatFS-master\source/ff.c **** 					if (ord != 0 || sum != sum_sfn(dp->dir)) {	/* Is there a valid LFN? */
2399:..\..\FatFS-master\source/ff.c **** 						dp->blk_ofs = 0xFFFFFFFF;			/* It has no LFN. */
2400:..\..\FatFS-master\source/ff.c **** 					}
2401:..\..\FatFS-master\source/ff.c **** 					break;
2402:..\..\FatFS-master\source/ff.c **** 				}
2403:..\..\FatFS-master\source/ff.c **** 			}
2404:..\..\FatFS-master\source/ff.c **** #else		/* Non LFN configuration */
2405:..\..\FatFS-master\source/ff.c **** 			if (c != DDEM && c != '.' && a != AM_LFN && (int)((a & ~AM_ARC) == AM_VOL) == vol) {	/* Is it a 
2406:..\..\FatFS-master\source/ff.c **** 				break;
2407:..\..\FatFS-master\source/ff.c **** 			}
2408:..\..\FatFS-master\source/ff.c **** #endif
2409:..\..\FatFS-master\source/ff.c **** 		}
2410:..\..\FatFS-master\source/ff.c **** 		res = dir_next(dp, 0);		/* Next entry */
2411:..\..\FatFS-master\source/ff.c **** 		if (res != FR_OK) break;
2412:..\..\FatFS-master\source/ff.c **** 	}
2413:..\..\FatFS-master\source/ff.c **** 
2414:..\..\FatFS-master\source/ff.c **** 	if (res != FR_OK) dp->sect = 0;		/* Terminate the read operation on error or EOT */
2415:..\..\FatFS-master\source/ff.c **** 	return res;
2416:..\..\FatFS-master\source/ff.c **** }
2417:..\..\FatFS-master\source/ff.c **** 
2418:..\..\FatFS-master\source/ff.c **** #endif	/* FF_FS_MINIMIZE <= 1 || FF_USE_LABEL || FF_FS_RPATH >= 2 */
2419:..\..\FatFS-master\source/ff.c **** 
2420:..\..\FatFS-master\source/ff.c **** 
2421:..\..\FatFS-master\source/ff.c **** 
2422:..\..\FatFS-master\source/ff.c **** /*-----------------------------------------------------------------------*/
2423:..\..\FatFS-master\source/ff.c **** /* Directory handling - Find an object in the directory                  */
2424:..\..\FatFS-master\source/ff.c **** /*-----------------------------------------------------------------------*/
2425:..\..\FatFS-master\source/ff.c **** 
2426:..\..\FatFS-master\source/ff.c **** static
2427:..\..\FatFS-master\source/ff.c **** FRESULT dir_find (	/* FR_OK(0):succeeded, !=0:error */
2428:..\..\FatFS-master\source/ff.c **** 	DIR* dp			/* Pointer to the directory object with the file name */
2429:..\..\FatFS-master\source/ff.c **** )
2430:..\..\FatFS-master\source/ff.c **** {
2431:..\..\FatFS-master\source/ff.c **** 	FRESULT res;
2432:..\..\FatFS-master\source/ff.c **** 	FATFS *fs = dp->obj.fs;
2433:..\..\FatFS-master\source/ff.c **** 	BYTE c;
2434:..\..\FatFS-master\source/ff.c **** #if FF_USE_LFN
2435:..\..\FatFS-master\source/ff.c **** 	BYTE a, ord, sum;
2436:..\..\FatFS-master\source/ff.c **** #endif
2437:..\..\FatFS-master\source/ff.c **** 
2438:..\..\FatFS-master\source/ff.c **** 	res = dir_sdi(dp, 0);			/* Rewind directory object */
2439:..\..\FatFS-master\source/ff.c **** 	if (res != FR_OK) return res;
2440:..\..\FatFS-master\source/ff.c **** #if FF_FS_EXFAT
ARM GAS  C:\Users\NUSAIR~1\AppData\Local\Temp\ccFqg92r.s 			page 54


2441:..\..\FatFS-master\source/ff.c **** 	if (fs->fs_type == FS_EXFAT) {	/* On the exFAT volume */
2442:..\..\FatFS-master\source/ff.c **** 		BYTE nc;
2443:..\..\FatFS-master\source/ff.c **** 		UINT di, ni;
2444:..\..\FatFS-master\source/ff.c **** 		WORD hash = xname_sum(fs->lfnbuf);		/* Hash value of the name to find */
2445:..\..\FatFS-master\source/ff.c **** 
2446:..\..\FatFS-master\source/ff.c **** 		while ((res = dir_read_file(dp)) == FR_OK) {	/* Read an item */
2447:..\..\FatFS-master\source/ff.c **** #if FF_MAX_LFN < 255
2448:..\..\FatFS-master\source/ff.c **** 			if (fs->dirbuf[XDIR_NumName] > FF_MAX_LFN) continue;			/* Skip comparison if inaccessible object
2449:..\..\FatFS-master\source/ff.c **** #endif
2450:..\..\FatFS-master\source/ff.c **** 			if (ld_word(fs->dirbuf + XDIR_NameHash) != hash) continue;	/* Skip comparison if hash mismatched
2451:..\..\FatFS-master\source/ff.c **** 			for (nc = fs->dirbuf[XDIR_NumName], di = SZDIRE * 2, ni = 0; nc; nc--, di += 2, ni++) {	/* Compa
2452:..\..\FatFS-master\source/ff.c **** 				if ((di % SZDIRE) == 0) di += 2;
2453:..\..\FatFS-master\source/ff.c **** 				if (ff_wtoupper(ld_word(fs->dirbuf + di)) != ff_wtoupper(fs->lfnbuf[ni])) break;
2454:..\..\FatFS-master\source/ff.c **** 			}
2455:..\..\FatFS-master\source/ff.c **** 			if (nc == 0 && !fs->lfnbuf[ni]) break;	/* Name matched? */
2456:..\..\FatFS-master\source/ff.c **** 		}
2457:..\..\FatFS-master\source/ff.c **** 		return res;
2458:..\..\FatFS-master\source/ff.c **** 	}
2459:..\..\FatFS-master\source/ff.c **** #endif
2460:..\..\FatFS-master\source/ff.c **** 	/* On the FAT/FAT32 volume */
2461:..\..\FatFS-master\source/ff.c **** #if FF_USE_LFN
2462:..\..\FatFS-master\source/ff.c **** 	ord = sum = 0xFF; dp->blk_ofs = 0xFFFFFFFF;	/* Reset LFN sequence */
2463:..\..\FatFS-master\source/ff.c **** #endif
2464:..\..\FatFS-master\source/ff.c **** 	do {
2465:..\..\FatFS-master\source/ff.c **** 		res = move_window(fs, dp->sect);
2466:..\..\FatFS-master\source/ff.c **** 		if (res != FR_OK) break;
2467:..\..\FatFS-master\source/ff.c **** 		c = dp->dir[DIR_Name];
2468:..\..\FatFS-master\source/ff.c **** 		if (c == 0) { res = FR_NO_FILE; break; }	/* Reached to end of table */
2469:..\..\FatFS-master\source/ff.c **** #if FF_USE_LFN		/* LFN configuration */
2470:..\..\FatFS-master\source/ff.c **** 		dp->obj.attr = a = dp->dir[DIR_Attr] & AM_MASK;
2471:..\..\FatFS-master\source/ff.c **** 		if (c == DDEM || ((a & AM_VOL) && a != AM_LFN)) {	/* An entry without valid data */
2472:..\..\FatFS-master\source/ff.c **** 			ord = 0xFF; dp->blk_ofs = 0xFFFFFFFF;	/* Reset LFN sequence */
2473:..\..\FatFS-master\source/ff.c **** 		} else {
2474:..\..\FatFS-master\source/ff.c **** 			if (a == AM_LFN) {			/* An LFN entry is found */
2475:..\..\FatFS-master\source/ff.c **** 				if (!(dp->fn[NSFLAG] & NS_NOLFN)) {
2476:..\..\FatFS-master\source/ff.c **** 					if (c & LLEF) {		/* Is it start of LFN sequence? */
2477:..\..\FatFS-master\source/ff.c **** 						sum = dp->dir[LDIR_Chksum];
2478:..\..\FatFS-master\source/ff.c **** 						c &= (BYTE)~LLEF; ord = c;	/* LFN start order */
2479:..\..\FatFS-master\source/ff.c **** 						dp->blk_ofs = dp->dptr;	/* Start offset of LFN */
2480:..\..\FatFS-master\source/ff.c **** 					}
2481:..\..\FatFS-master\source/ff.c **** 					/* Check validity of the LFN entry and compare it with given name */
2482:..\..\FatFS-master\source/ff.c **** 					ord = (c == ord && sum == dp->dir[LDIR_Chksum] && cmp_lfn(fs->lfnbuf, dp->dir)) ? ord - 1 : 0x
2483:..\..\FatFS-master\source/ff.c **** 				}
2484:..\..\FatFS-master\source/ff.c **** 			} else {					/* An SFN entry is found */
2485:..\..\FatFS-master\source/ff.c **** 				if (ord == 0 && sum == sum_sfn(dp->dir)) break;	/* LFN matched? */
2486:..\..\FatFS-master\source/ff.c **** 				if (!(dp->fn[NSFLAG] & NS_LOSS) && !mem_cmp(dp->dir, dp->fn, 11)) break;	/* SFN matched? */
2487:..\..\FatFS-master\source/ff.c **** 				ord = 0xFF; dp->blk_ofs = 0xFFFFFFFF;	/* Reset LFN sequence */
2488:..\..\FatFS-master\source/ff.c **** 			}
2489:..\..\FatFS-master\source/ff.c **** 		}
2490:..\..\FatFS-master\source/ff.c **** #else		/* Non LFN configuration */
2491:..\..\FatFS-master\source/ff.c **** 		dp->obj.attr = dp->dir[DIR_Attr] & AM_MASK;
2492:..\..\FatFS-master\source/ff.c **** 		if (!(dp->dir[DIR_Attr] & AM_VOL) && !mem_cmp(dp->dir, dp->fn, 11)) break;	/* Is it a valid entry
2493:..\..\FatFS-master\source/ff.c **** #endif
2494:..\..\FatFS-master\source/ff.c **** 		res = dir_next(dp, 0);	/* Next entry */
2495:..\..\FatFS-master\source/ff.c **** 	} while (res == FR_OK);
2496:..\..\FatFS-master\source/ff.c **** 
2497:..\..\FatFS-master\source/ff.c **** 	return res;
ARM GAS  C:\Users\NUSAIR~1\AppData\Local\Temp\ccFqg92r.s 			page 55


2498:..\..\FatFS-master\source/ff.c **** }
2499:..\..\FatFS-master\source/ff.c **** 
2500:..\..\FatFS-master\source/ff.c **** 
2501:..\..\FatFS-master\source/ff.c **** 
2502:..\..\FatFS-master\source/ff.c **** 
2503:..\..\FatFS-master\source/ff.c **** #if !FF_FS_READONLY
2504:..\..\FatFS-master\source/ff.c **** /*-----------------------------------------------------------------------*/
2505:..\..\FatFS-master\source/ff.c **** /* Register an object to the directory                                   */
2506:..\..\FatFS-master\source/ff.c **** /*-----------------------------------------------------------------------*/
2507:..\..\FatFS-master\source/ff.c **** 
2508:..\..\FatFS-master\source/ff.c **** static
2509:..\..\FatFS-master\source/ff.c **** FRESULT dir_register (	/* FR_OK:succeeded, FR_DENIED:no free entry or too many SFN collision, FR_DI
2510:..\..\FatFS-master\source/ff.c **** 	DIR* dp				/* Target directory with object name to be created */
2511:..\..\FatFS-master\source/ff.c **** )
2512:..\..\FatFS-master\source/ff.c **** {
2513:..\..\FatFS-master\source/ff.c **** 	FRESULT res;
2514:..\..\FatFS-master\source/ff.c **** 	FATFS *fs = dp->obj.fs;
2515:..\..\FatFS-master\source/ff.c **** #if FF_USE_LFN		/* LFN configuration */
2516:..\..\FatFS-master\source/ff.c **** 	UINT n, nlen, nent;
2517:..\..\FatFS-master\source/ff.c **** 	BYTE sn[12], sum;
2518:..\..\FatFS-master\source/ff.c **** 
2519:..\..\FatFS-master\source/ff.c **** 
2520:..\..\FatFS-master\source/ff.c **** 	if (dp->fn[NSFLAG] & (NS_DOT | NS_NONAME)) return FR_INVALID_NAME;	/* Check name validity */
2521:..\..\FatFS-master\source/ff.c **** 	for (nlen = 0; fs->lfnbuf[nlen]; nlen++) ;	/* Get lfn length */
2522:..\..\FatFS-master\source/ff.c **** 
2523:..\..\FatFS-master\source/ff.c **** #if FF_FS_EXFAT
2524:..\..\FatFS-master\source/ff.c **** 	if (fs->fs_type == FS_EXFAT) {	/* On the exFAT volume */
2525:..\..\FatFS-master\source/ff.c **** 		nent = (nlen + 14) / 15 + 2;	/* Number of entries to allocate (85+C0+C1s) */
2526:..\..\FatFS-master\source/ff.c **** 		res = dir_alloc(dp, nent);		/* Allocate entries */
2527:..\..\FatFS-master\source/ff.c **** 		if (res != FR_OK) return res;
2528:..\..\FatFS-master\source/ff.c **** 		dp->blk_ofs = dp->dptr - SZDIRE * (nent - 1);	/* Set the allocated entry block offset */
2529:..\..\FatFS-master\source/ff.c **** 
2530:..\..\FatFS-master\source/ff.c **** 		if (dp->obj.stat & 4) {			/* Has the directory been stretched? */
2531:..\..\FatFS-master\source/ff.c **** 			dp->obj.stat &= ~4;
2532:..\..\FatFS-master\source/ff.c **** 			res = fill_first_frag(&dp->obj);	/* Fill the first fragment on the FAT if needed */
2533:..\..\FatFS-master\source/ff.c **** 			if (res != FR_OK) return res;
2534:..\..\FatFS-master\source/ff.c **** 			res = fill_last_frag(&dp->obj, dp->clust, 0xFFFFFFFF);	/* Fill the last fragment on the FAT if n
2535:..\..\FatFS-master\source/ff.c **** 			if (res != FR_OK) return res;
2536:..\..\FatFS-master\source/ff.c **** 			if (dp->obj.sclust != 0) {		/* Is it a sub directory? */
2537:..\..\FatFS-master\source/ff.c **** 				DIR dj;
2538:..\..\FatFS-master\source/ff.c **** 
2539:..\..\FatFS-master\source/ff.c **** 				res = load_obj_xdir(&dj, &dp->obj);	/* Load the object status */
2540:..\..\FatFS-master\source/ff.c **** 				if (res != FR_OK) return res;
2541:..\..\FatFS-master\source/ff.c **** 				dp->obj.objsize += (DWORD)fs->csize * SS(fs);			/* Increase the directory size by cluster size 
2542:..\..\FatFS-master\source/ff.c **** 				st_qword(fs->dirbuf + XDIR_FileSize, dp->obj.objsize);	/* Update the allocation status */
2543:..\..\FatFS-master\source/ff.c **** 				st_qword(fs->dirbuf + XDIR_ValidFileSize, dp->obj.objsize);
2544:..\..\FatFS-master\source/ff.c **** 				fs->dirbuf[XDIR_GenFlags] = dp->obj.stat | 1;
2545:..\..\FatFS-master\source/ff.c **** 				res = store_xdir(&dj);				/* Store the object status */
2546:..\..\FatFS-master\source/ff.c **** 				if (res != FR_OK) return res;
2547:..\..\FatFS-master\source/ff.c **** 			}
2548:..\..\FatFS-master\source/ff.c **** 		}
2549:..\..\FatFS-master\source/ff.c **** 
2550:..\..\FatFS-master\source/ff.c **** 		create_xdir(fs->dirbuf, fs->lfnbuf);	/* Create on-memory directory block to be written later */
2551:..\..\FatFS-master\source/ff.c **** 		return FR_OK;
2552:..\..\FatFS-master\source/ff.c **** 	}
2553:..\..\FatFS-master\source/ff.c **** #endif
2554:..\..\FatFS-master\source/ff.c **** 	/* On the FAT/FAT32 volume */
ARM GAS  C:\Users\NUSAIR~1\AppData\Local\Temp\ccFqg92r.s 			page 56


2555:..\..\FatFS-master\source/ff.c **** 	mem_cpy(sn, dp->fn, 12);
2556:..\..\FatFS-master\source/ff.c **** 	if (sn[NSFLAG] & NS_LOSS) {			/* When LFN is out of 8.3 format, generate a numbered name */
2557:..\..\FatFS-master\source/ff.c **** 		dp->fn[NSFLAG] = NS_NOLFN;		/* Find only SFN */
2558:..\..\FatFS-master\source/ff.c **** 		for (n = 1; n < 100; n++) {
2559:..\..\FatFS-master\source/ff.c **** 			gen_numname(dp->fn, sn, fs->lfnbuf, n);	/* Generate a numbered name */
2560:..\..\FatFS-master\source/ff.c **** 			res = dir_find(dp);				/* Check if the name collides with existing SFN */
2561:..\..\FatFS-master\source/ff.c **** 			if (res != FR_OK) break;
2562:..\..\FatFS-master\source/ff.c **** 		}
2563:..\..\FatFS-master\source/ff.c **** 		if (n == 100) return FR_DENIED;		/* Abort if too many collisions */
2564:..\..\FatFS-master\source/ff.c **** 		if (res != FR_NO_FILE) return res;	/* Abort if the result is other than 'not collided' */
2565:..\..\FatFS-master\source/ff.c **** 		dp->fn[NSFLAG] = sn[NSFLAG];
2566:..\..\FatFS-master\source/ff.c **** 	}
2567:..\..\FatFS-master\source/ff.c **** 
2568:..\..\FatFS-master\source/ff.c **** 	/* Create an SFN with/without LFNs. */
2569:..\..\FatFS-master\source/ff.c **** 	nent = (sn[NSFLAG] & NS_LFN) ? (nlen + 12) / 13 + 1 : 1;	/* Number of entries to allocate */
2570:..\..\FatFS-master\source/ff.c **** 	res = dir_alloc(dp, nent);		/* Allocate entries */
2571:..\..\FatFS-master\source/ff.c **** 	if (res == FR_OK && --nent) {	/* Set LFN entry if needed */
2572:..\..\FatFS-master\source/ff.c **** 		res = dir_sdi(dp, dp->dptr - nent * SZDIRE);
2573:..\..\FatFS-master\source/ff.c **** 		if (res == FR_OK) {
2574:..\..\FatFS-master\source/ff.c **** 			sum = sum_sfn(dp->fn);	/* Checksum value of the SFN tied to the LFN */
2575:..\..\FatFS-master\source/ff.c **** 			do {					/* Store LFN entries in bottom first */
2576:..\..\FatFS-master\source/ff.c **** 				res = move_window(fs, dp->sect);
2577:..\..\FatFS-master\source/ff.c **** 				if (res != FR_OK) break;
2578:..\..\FatFS-master\source/ff.c **** 				put_lfn(fs->lfnbuf, dp->dir, (BYTE)nent, sum);
2579:..\..\FatFS-master\source/ff.c **** 				fs->wflag = 1;
2580:..\..\FatFS-master\source/ff.c **** 				res = dir_next(dp, 0);	/* Next entry */
2581:..\..\FatFS-master\source/ff.c **** 			} while (res == FR_OK && --nent);
2582:..\..\FatFS-master\source/ff.c **** 		}
2583:..\..\FatFS-master\source/ff.c **** 	}
2584:..\..\FatFS-master\source/ff.c **** 
2585:..\..\FatFS-master\source/ff.c **** #else	/* Non LFN configuration */
2586:..\..\FatFS-master\source/ff.c **** 	res = dir_alloc(dp, 1);		/* Allocate an entry for SFN */
2587:..\..\FatFS-master\source/ff.c **** 
2588:..\..\FatFS-master\source/ff.c **** #endif
2589:..\..\FatFS-master\source/ff.c **** 
2590:..\..\FatFS-master\source/ff.c **** 	/* Set SFN entry */
2591:..\..\FatFS-master\source/ff.c **** 	if (res == FR_OK) {
2592:..\..\FatFS-master\source/ff.c **** 		res = move_window(fs, dp->sect);
2593:..\..\FatFS-master\source/ff.c **** 		if (res == FR_OK) {
2594:..\..\FatFS-master\source/ff.c **** 			mem_set(dp->dir, 0, SZDIRE);	/* Clean the entry */
2595:..\..\FatFS-master\source/ff.c **** 			mem_cpy(dp->dir + DIR_Name, dp->fn, 11);	/* Put SFN */
2596:..\..\FatFS-master\source/ff.c **** #if FF_USE_LFN
2597:..\..\FatFS-master\source/ff.c **** 			dp->dir[DIR_NTres] = dp->fn[NSFLAG] & (NS_BODY | NS_EXT);	/* Put NT flag */
2598:..\..\FatFS-master\source/ff.c **** #endif
2599:..\..\FatFS-master\source/ff.c **** 			fs->wflag = 1;
2600:..\..\FatFS-master\source/ff.c **** 		}
2601:..\..\FatFS-master\source/ff.c **** 	}
2602:..\..\FatFS-master\source/ff.c **** 
2603:..\..\FatFS-master\source/ff.c **** 	return res;
2604:..\..\FatFS-master\source/ff.c **** }
2605:..\..\FatFS-master\source/ff.c **** 
2606:..\..\FatFS-master\source/ff.c **** #endif /* !FF_FS_READONLY */
2607:..\..\FatFS-master\source/ff.c **** 
2608:..\..\FatFS-master\source/ff.c **** 
2609:..\..\FatFS-master\source/ff.c **** 
2610:..\..\FatFS-master\source/ff.c **** #if !FF_FS_READONLY && FF_FS_MINIMIZE == 0
2611:..\..\FatFS-master\source/ff.c **** /*-----------------------------------------------------------------------*/
ARM GAS  C:\Users\NUSAIR~1\AppData\Local\Temp\ccFqg92r.s 			page 57


2612:..\..\FatFS-master\source/ff.c **** /* Remove an object from the directory                                   */
2613:..\..\FatFS-master\source/ff.c **** /*-----------------------------------------------------------------------*/
2614:..\..\FatFS-master\source/ff.c **** 
2615:..\..\FatFS-master\source/ff.c **** static
2616:..\..\FatFS-master\source/ff.c **** FRESULT dir_remove (	/* FR_OK:Succeeded, FR_DISK_ERR:A disk error */
2617:..\..\FatFS-master\source/ff.c **** 	DIR* dp				/* Directory object pointing the entry to be removed */
2618:..\..\FatFS-master\source/ff.c **** )
2619:..\..\FatFS-master\source/ff.c **** {
2620:..\..\FatFS-master\source/ff.c **** 	FRESULT res;
2621:..\..\FatFS-master\source/ff.c **** 	FATFS *fs = dp->obj.fs;
2622:..\..\FatFS-master\source/ff.c **** #if FF_USE_LFN		/* LFN configuration */
2623:..\..\FatFS-master\source/ff.c **** 	DWORD last = dp->dptr;
2624:..\..\FatFS-master\source/ff.c **** 
2625:..\..\FatFS-master\source/ff.c **** 	res = (dp->blk_ofs == 0xFFFFFFFF) ? FR_OK : dir_sdi(dp, dp->blk_ofs);	/* Goto top of the entry blo
2626:..\..\FatFS-master\source/ff.c **** 	if (res == FR_OK) {
2627:..\..\FatFS-master\source/ff.c **** 		do {
2628:..\..\FatFS-master\source/ff.c **** 			res = move_window(fs, dp->sect);
2629:..\..\FatFS-master\source/ff.c **** 			if (res != FR_OK) break;
2630:..\..\FatFS-master\source/ff.c **** 			if (FF_FS_EXFAT && fs->fs_type == FS_EXFAT) {	/* On the exFAT volume */
2631:..\..\FatFS-master\source/ff.c **** 				dp->dir[XDIR_Type] &= 0x7F;	/* Clear the entry InUse flag. */
2632:..\..\FatFS-master\source/ff.c **** 			} else {									/* On the FAT/FAT32 volume */
2633:..\..\FatFS-master\source/ff.c **** 				dp->dir[DIR_Name] = DDEM;	/* Mark the entry 'deleted'. */
2634:..\..\FatFS-master\source/ff.c **** 			}
2635:..\..\FatFS-master\source/ff.c **** 			fs->wflag = 1;
2636:..\..\FatFS-master\source/ff.c **** 			if (dp->dptr >= last) break;	/* If reached last entry then all entries of the object has been de
2637:..\..\FatFS-master\source/ff.c **** 			res = dir_next(dp, 0);	/* Next entry */
2638:..\..\FatFS-master\source/ff.c **** 		} while (res == FR_OK);
2639:..\..\FatFS-master\source/ff.c **** 		if (res == FR_NO_FILE) res = FR_INT_ERR;
2640:..\..\FatFS-master\source/ff.c **** 	}
2641:..\..\FatFS-master\source/ff.c **** #else			/* Non LFN configuration */
2642:..\..\FatFS-master\source/ff.c **** 
2643:..\..\FatFS-master\source/ff.c **** 	res = move_window(fs, dp->sect);
2644:..\..\FatFS-master\source/ff.c **** 	if (res == FR_OK) {
2645:..\..\FatFS-master\source/ff.c **** 		dp->dir[DIR_Name] = DDEM;	/* Mark the entry 'deleted'.*/
2646:..\..\FatFS-master\source/ff.c **** 		fs->wflag = 1;
2647:..\..\FatFS-master\source/ff.c **** 	}
2648:..\..\FatFS-master\source/ff.c **** #endif
2649:..\..\FatFS-master\source/ff.c **** 
2650:..\..\FatFS-master\source/ff.c **** 	return res;
2651:..\..\FatFS-master\source/ff.c **** }
2652:..\..\FatFS-master\source/ff.c **** 
2653:..\..\FatFS-master\source/ff.c **** #endif /* !FF_FS_READONLY && FF_FS_MINIMIZE == 0 */
2654:..\..\FatFS-master\source/ff.c **** 
2655:..\..\FatFS-master\source/ff.c **** 
2656:..\..\FatFS-master\source/ff.c **** 
2657:..\..\FatFS-master\source/ff.c **** #if FF_FS_MINIMIZE <= 1 || FF_FS_RPATH >= 2
2658:..\..\FatFS-master\source/ff.c **** /*-----------------------------------------------------------------------*/
2659:..\..\FatFS-master\source/ff.c **** /* Get file information from directory entry                             */
2660:..\..\FatFS-master\source/ff.c **** /*-----------------------------------------------------------------------*/
2661:..\..\FatFS-master\source/ff.c **** 
2662:..\..\FatFS-master\source/ff.c **** static
2663:..\..\FatFS-master\source/ff.c **** void get_fileinfo (
2664:..\..\FatFS-master\source/ff.c **** 	DIR* dp,		/* Pointer to the directory object */
2665:..\..\FatFS-master\source/ff.c **** 	FILINFO* fno	/* Pointer to the file information to be filled */
2666:..\..\FatFS-master\source/ff.c **** )
2667:..\..\FatFS-master\source/ff.c **** {
 573              		.loc 1 2667 0
ARM GAS  C:\Users\NUSAIR~1\AppData\Local\Temp\ccFqg92r.s 			page 58


 574              		.cfi_startproc
 575              		@ args = 0, pretend = 0, frame = 0
 576              		@ frame_needed = 0, uses_anonymous_args = 0
 577              	.LVL84:
 578 0000 70B5     		push	{r4, r5, r6, lr}
 579              		.cfi_def_cfa_offset 16
 580              		.cfi_offset 4, -16
 581              		.cfi_offset 5, -12
 582              		.cfi_offset 6, -8
 583              		.cfi_offset 14, -4
 584 0002 0400     		movs	r4, r0
 585 0004 0D00     		movs	r5, r1
2668:..\..\FatFS-master\source/ff.c **** 	UINT si, di;
2669:..\..\FatFS-master\source/ff.c **** #if FF_USE_LFN
2670:..\..\FatFS-master\source/ff.c **** 	WCHAR wc, hs;
2671:..\..\FatFS-master\source/ff.c **** 	FATFS *fs = dp->obj.fs;
2672:..\..\FatFS-master\source/ff.c **** #else
2673:..\..\FatFS-master\source/ff.c **** 	TCHAR c;
2674:..\..\FatFS-master\source/ff.c **** #endif
2675:..\..\FatFS-master\source/ff.c **** 
2676:..\..\FatFS-master\source/ff.c **** 
2677:..\..\FatFS-master\source/ff.c **** 	fno->fname[0] = 0;			/* Invaidate file info */
 586              		.loc 1 2677 0
 587 0006 0023     		movs	r3, #0
 588 0008 4B72     		strb	r3, [r1, #9]
2678:..\..\FatFS-master\source/ff.c **** 	if (dp->sect == 0) return;	/* Exit if read pointer has reached end of directory */
 589              		.loc 1 2678 0
 590 000a 8369     		ldr	r3, [r0, #24]
 591 000c 002B     		cmp	r3, #0
 592 000e 2BD0     		beq	.L37
 593 0010 0021     		movs	r1, #0
 594              	.LVL85:
 595 0012 0023     		movs	r3, #0
 596 0014 11E0     		b	.L39
 597              	.LVL86:
 598              	.L43:
2679:..\..\FatFS-master\source/ff.c **** 
2680:..\..\FatFS-master\source/ff.c **** #if FF_USE_LFN		/* LFN configuration */
2681:..\..\FatFS-master\source/ff.c **** #if FF_FS_EXFAT
2682:..\..\FatFS-master\source/ff.c **** 	if (fs->fs_type == FS_EXFAT) {	/* On the exFAT volume */
2683:..\..\FatFS-master\source/ff.c **** 		get_xfileinfo(fs->dirbuf, fno);
2684:..\..\FatFS-master\source/ff.c **** 		return;
2685:..\..\FatFS-master\source/ff.c **** 	} else
2686:..\..\FatFS-master\source/ff.c **** #endif
2687:..\..\FatFS-master\source/ff.c **** 	{	/* On the FAT/FAT32 volume */
2688:..\..\FatFS-master\source/ff.c **** 		if (dp->blk_ofs != 0xFFFFFFFF) {	/* Get LFN if available */
2689:..\..\FatFS-master\source/ff.c **** 			si = di = hs = 0;
2690:..\..\FatFS-master\source/ff.c **** 			while (fs->lfnbuf[si] != 0) {
2691:..\..\FatFS-master\source/ff.c **** 				wc = fs->lfnbuf[si++];		/* Get an LFN character (UTF-16) */
2692:..\..\FatFS-master\source/ff.c **** 				if (hs == 0 && IsSurrogate(wc)) {	/* Is it a surrogate? */
2693:..\..\FatFS-master\source/ff.c **** 					hs = wc; continue;		/* Get low surrogate */
2694:..\..\FatFS-master\source/ff.c **** 				}
2695:..\..\FatFS-master\source/ff.c **** 				wc = put_utf((DWORD)hs << 16 | wc, &fno->fname[di], FF_LFN_BUF - di);	/* Store it in UTF-16 or 
2696:..\..\FatFS-master\source/ff.c **** 				if (wc == 0) { di = 0; break; }	/* Invalid char or buffer overflow? */
2697:..\..\FatFS-master\source/ff.c **** 				di += wc;
2698:..\..\FatFS-master\source/ff.c **** 				hs = 0;
2699:..\..\FatFS-master\source/ff.c **** 			}
ARM GAS  C:\Users\NUSAIR~1\AppData\Local\Temp\ccFqg92r.s 			page 59


2700:..\..\FatFS-master\source/ff.c **** 			if (hs != 0) di = 0;	/* Broken surrogate pair? */
2701:..\..\FatFS-master\source/ff.c **** 			fno->fname[di] = 0;		/* Terminate the LFN (null string means LFN is invalid) */
2702:..\..\FatFS-master\source/ff.c **** 		}
2703:..\..\FatFS-master\source/ff.c **** 	}
2704:..\..\FatFS-master\source/ff.c **** 
2705:..\..\FatFS-master\source/ff.c **** 	si = di = 0;
2706:..\..\FatFS-master\source/ff.c **** 	while (si < 11) {		/* Get SFN from SFN entry */
2707:..\..\FatFS-master\source/ff.c **** 		wc = dp->dir[si++];			/* Get a char */
2708:..\..\FatFS-master\source/ff.c **** 		if (wc == ' ') continue;	/* Skip padding spaces */
2709:..\..\FatFS-master\source/ff.c **** 		if (wc == RDDEM) wc = DDEM;	/* Restore replaced DDEM character */
2710:..\..\FatFS-master\source/ff.c **** 		if (si == 9 && di < FF_SFN_BUF) fno->altname[di++] = '.';	/* Insert a . if extension is exist */
2711:..\..\FatFS-master\source/ff.c **** #if FF_LFN_UNICODE >= 1	/* Unicode output */
2712:..\..\FatFS-master\source/ff.c **** 		if (dbc_1st((BYTE)wc) && si != 8 && si != 11 && dbc_2nd(dp->dir[si])) {	/* Make a DBC if needed *
2713:..\..\FatFS-master\source/ff.c **** 			wc = wc << 8 | dp->dir[si++];
2714:..\..\FatFS-master\source/ff.c **** 		}
2715:..\..\FatFS-master\source/ff.c **** 		wc = ff_oem2uni(wc, CODEPAGE);		/* ANSI/OEM -> Unicode */
2716:..\..\FatFS-master\source/ff.c **** 		if (wc == 0) { di = 0; break; }		/* Wrong char in the current code page? */
2717:..\..\FatFS-master\source/ff.c **** 		wc = put_utf(wc, &fno->altname[di], FF_SFN_BUF - di);	/* Store it in UTF-16 or UTF-8 */
2718:..\..\FatFS-master\source/ff.c **** 		if (wc == 0) { di = 0; break; }		/* Buffer overflow? */
2719:..\..\FatFS-master\source/ff.c **** 		di += wc;
2720:..\..\FatFS-master\source/ff.c **** #else					/* ANSI/OEM output */
2721:..\..\FatFS-master\source/ff.c **** 		fno->altname[di++] = (TCHAR)wc;	/* Store it without any conversion */
2722:..\..\FatFS-master\source/ff.c **** #endif
2723:..\..\FatFS-master\source/ff.c **** 	}
2724:..\..\FatFS-master\source/ff.c **** 	fno->altname[di] = 0;	/* Terminate the SFN  (null string means SFN is invalid) */
2725:..\..\FatFS-master\source/ff.c **** 
2726:..\..\FatFS-master\source/ff.c **** 	if (fno->fname[0] == 0) {	/* If LFN is invalid, altname[] needs to be copied to fname[] */
2727:..\..\FatFS-master\source/ff.c **** 		if (di == 0) {	/* If LFN and SFN both are invalid, this object is inaccesible */
2728:..\..\FatFS-master\source/ff.c **** 			fno->fname[di++] = '?';
2729:..\..\FatFS-master\source/ff.c **** 		} else {
2730:..\..\FatFS-master\source/ff.c **** 			for (si = di = 0; fno->altname[si]; si++, di++) {	/* Copy altname[] to fname[] with case informa
2731:..\..\FatFS-master\source/ff.c **** 				wc = (WCHAR)fno->altname[si];
2732:..\..\FatFS-master\source/ff.c **** 				if (IsUpper(wc) && (dp->dir[DIR_NTres] & ((si >= 9) ? NS_EXT : NS_BODY))) wc += 0x20;
2733:..\..\FatFS-master\source/ff.c **** 				fno->fname[di] = (TCHAR)wc;
2734:..\..\FatFS-master\source/ff.c **** 			}
2735:..\..\FatFS-master\source/ff.c **** 		}
2736:..\..\FatFS-master\source/ff.c **** 		fno->fname[di] = 0;	/* Terminate the LFN */
2737:..\..\FatFS-master\source/ff.c **** 		if (!dp->dir[DIR_NTres]) fno->altname[0] = 0;	/* Altname is not needed if neither LFN nor case in
2738:..\..\FatFS-master\source/ff.c **** 	}
2739:..\..\FatFS-master\source/ff.c **** 
2740:..\..\FatFS-master\source/ff.c **** #else	/* Non-LFN configuration */
2741:..\..\FatFS-master\source/ff.c **** 	si = di = 0;
2742:..\..\FatFS-master\source/ff.c **** 	while (si < 11) {		/* Copy name body and extension */
2743:..\..\FatFS-master\source/ff.c **** 		c = (TCHAR)dp->dir[si++];
 599              		.loc 1 2743 0
 600 0016 5A1C     		adds	r2, r3, #1
 601              	.LVL87:
 602 0018 E069     		ldr	r0, [r4, #28]
 603 001a C35C     		ldrb	r3, [r0, r3]
 604              	.LVL88:
2744:..\..\FatFS-master\source/ff.c **** 		if (c == ' ') continue;		/* Skip padding spaces */
 605              		.loc 1 2744 0
 606 001c 202B     		cmp	r3, #32
 607 001e 0BD0     		beq	.L40
2745:..\..\FatFS-master\source/ff.c **** 		if (c == RDDEM) c = DDEM;	/* Restore replaced DDEM character */
 608              		.loc 1 2745 0
 609 0020 052B     		cmp	r3, #5
ARM GAS  C:\Users\NUSAIR~1\AppData\Local\Temp\ccFqg92r.s 			page 60


 610 0022 00D1     		bne	.L41
 611 0024 E033     		adds	r3, r3, #224
 612              	.LVL89:
 613              	.L41:
2746:..\..\FatFS-master\source/ff.c **** 		if (si == 9) fno->fname[di++] = '.';/* Insert a . if extension is exist */
 614              		.loc 1 2746 0
 615 0026 092A     		cmp	r2, #9
 616 0028 03D1     		bne	.L42
 617              	.LVL90:
 618              		.loc 1 2746 0 is_stmt 0 discriminator 1
 619 002a 6818     		adds	r0, r5, r1
 620 002c 2E26     		movs	r6, #46
 621 002e 4672     		strb	r6, [r0, #9]
 622 0030 0131     		adds	r1, r1, #1
 623              	.LVL91:
 624              	.L42:
2747:..\..\FatFS-master\source/ff.c **** 		fno->fname[di++] = c;
 625              		.loc 1 2747 0 is_stmt 1
 626 0032 6818     		adds	r0, r5, r1
 627 0034 4372     		strb	r3, [r0, #9]
 628 0036 0131     		adds	r1, r1, #1
 629              	.LVL92:
 630              	.L40:
 631 0038 1300     		movs	r3, r2
 632              	.LVL93:
 633              	.L39:
2742:..\..\FatFS-master\source/ff.c **** 		c = (TCHAR)dp->dir[si++];
 634              		.loc 1 2742 0
 635 003a 0A2B     		cmp	r3, #10
 636 003c EBD9     		bls	.L43
2748:..\..\FatFS-master\source/ff.c **** 	}
2749:..\..\FatFS-master\source/ff.c **** 	fno->fname[di] = 0;
 637              		.loc 1 2749 0
 638 003e 6918     		adds	r1, r5, r1
 639              	.LVL94:
 640 0040 0023     		movs	r3, #0
 641              	.LVL95:
 642 0042 4B72     		strb	r3, [r1, #9]
2750:..\..\FatFS-master\source/ff.c **** #endif
2751:..\..\FatFS-master\source/ff.c **** 
2752:..\..\FatFS-master\source/ff.c **** 	fno->fattrib = dp->dir[DIR_Attr];					/* Attribute */
 643              		.loc 1 2752 0
 644 0044 E369     		ldr	r3, [r4, #28]
 645 0046 DB7A     		ldrb	r3, [r3, #11]
 646 0048 2B72     		strb	r3, [r5, #8]
2753:..\..\FatFS-master\source/ff.c **** 	fno->fsize = ld_dword(dp->dir + DIR_FileSize);		/* Size */
 647              		.loc 1 2753 0
 648 004a E069     		ldr	r0, [r4, #28]
 649 004c 1C30     		adds	r0, r0, #28
 650 004e FFF7FEFF 		bl	ld_dword
 651              	.LVL96:
 652 0052 2860     		str	r0, [r5]
2754:..\..\FatFS-master\source/ff.c **** 	fno->ftime = ld_word(dp->dir + DIR_ModTime + 0);	/* Time */
 653              		.loc 1 2754 0
 654 0054 E069     		ldr	r0, [r4, #28]
 655 0056 1630     		adds	r0, r0, #22
 656 0058 FFF7FEFF 		bl	ld_word
ARM GAS  C:\Users\NUSAIR~1\AppData\Local\Temp\ccFqg92r.s 			page 61


 657              	.LVL97:
 658 005c E880     		strh	r0, [r5, #6]
2755:..\..\FatFS-master\source/ff.c **** 	fno->fdate = ld_word(dp->dir + DIR_ModTime + 2);	/* Date */
 659              		.loc 1 2755 0
 660 005e E069     		ldr	r0, [r4, #28]
 661 0060 1830     		adds	r0, r0, #24
 662 0062 FFF7FEFF 		bl	ld_word
 663              	.LVL98:
 664 0066 A880     		strh	r0, [r5, #4]
 665              	.L37:
2756:..\..\FatFS-master\source/ff.c **** }
 666              		.loc 1 2756 0
 667              		@ sp needed
 668              	.LVL99:
 669              	.LVL100:
 670 0068 70BD     		pop	{r4, r5, r6, pc}
 671              		.cfi_endproc
 672              	.LFE28:
 673              		.size	get_fileinfo, .-get_fileinfo
 674 006a C046     		.section	.text.create_name,"ax",%progbits
 675              		.align	2
 676              		.code	16
 677              		.thumb_func
 678              		.type	create_name, %function
 679              	create_name:
 680              	.LFB29:
2757:..\..\FatFS-master\source/ff.c **** 
2758:..\..\FatFS-master\source/ff.c **** #endif /* FF_FS_MINIMIZE <= 1 || FF_FS_RPATH >= 2 */
2759:..\..\FatFS-master\source/ff.c **** 
2760:..\..\FatFS-master\source/ff.c **** 
2761:..\..\FatFS-master\source/ff.c **** 
2762:..\..\FatFS-master\source/ff.c **** #if FF_USE_FIND && FF_FS_MINIMIZE <= 1
2763:..\..\FatFS-master\source/ff.c **** /*-----------------------------------------------------------------------*/
2764:..\..\FatFS-master\source/ff.c **** /* Pattern matching                                                      */
2765:..\..\FatFS-master\source/ff.c **** /*-----------------------------------------------------------------------*/
2766:..\..\FatFS-master\source/ff.c **** 
2767:..\..\FatFS-master\source/ff.c **** static
2768:..\..\FatFS-master\source/ff.c **** DWORD get_achar (		/* Get a character and advances ptr */
2769:..\..\FatFS-master\source/ff.c **** 	const TCHAR** ptr	/* Pointer to pointer to the ANSI/OEM or Unicode string */
2770:..\..\FatFS-master\source/ff.c **** )
2771:..\..\FatFS-master\source/ff.c **** {
2772:..\..\FatFS-master\source/ff.c **** 	DWORD chr;
2773:..\..\FatFS-master\source/ff.c **** 
2774:..\..\FatFS-master\source/ff.c **** 
2775:..\..\FatFS-master\source/ff.c **** #if FF_USE_LFN && FF_LFN_UNICODE >= 1	/* Unicode input */
2776:..\..\FatFS-master\source/ff.c **** 	chr = tchar2uni(ptr);
2777:..\..\FatFS-master\source/ff.c **** 	if (chr == 0xFFFFFFFF) chr = 0;		/* Wrong UTF encoding is recognized as end of the string */
2778:..\..\FatFS-master\source/ff.c **** 	chr = ff_wtoupper(chr);
2779:..\..\FatFS-master\source/ff.c **** 
2780:..\..\FatFS-master\source/ff.c **** #else									/* ANSI/OEM input */
2781:..\..\FatFS-master\source/ff.c **** 	chr = (BYTE)*(*ptr)++;				/* Get a byte */
2782:..\..\FatFS-master\source/ff.c **** 	if (IsLower(chr)) chr -= 0x20;		/* To upper ASCII char */
2783:..\..\FatFS-master\source/ff.c **** #if FF_CODE_PAGE == 0
2784:..\..\FatFS-master\source/ff.c **** 	if (ExCvt && chr >= 0x80) chr = ExCvt[chr - 0x80];	/* To upper SBCS extended char */
2785:..\..\FatFS-master\source/ff.c **** #elif FF_CODE_PAGE < 900
2786:..\..\FatFS-master\source/ff.c **** 	if (chr >= 0x80) chr = ExCvt[chr - 0x80];	/* To upper SBCS extended char */
2787:..\..\FatFS-master\source/ff.c **** #endif
ARM GAS  C:\Users\NUSAIR~1\AppData\Local\Temp\ccFqg92r.s 			page 62


2788:..\..\FatFS-master\source/ff.c **** #if FF_CODE_PAGE == 0 || FF_CODE_PAGE >= 900
2789:..\..\FatFS-master\source/ff.c **** 	if (dbc_1st((BYTE)chr)) {	/* Get DBC 2nd byte if needed */
2790:..\..\FatFS-master\source/ff.c **** 		chr = dbc_2nd((BYTE)**ptr) ? chr << 8 | (BYTE)*(*ptr)++ : 0;
2791:..\..\FatFS-master\source/ff.c **** 	}
2792:..\..\FatFS-master\source/ff.c **** #endif
2793:..\..\FatFS-master\source/ff.c **** 
2794:..\..\FatFS-master\source/ff.c **** #endif
2795:..\..\FatFS-master\source/ff.c **** 	return chr;
2796:..\..\FatFS-master\source/ff.c **** }
2797:..\..\FatFS-master\source/ff.c **** 
2798:..\..\FatFS-master\source/ff.c **** 
2799:..\..\FatFS-master\source/ff.c **** static
2800:..\..\FatFS-master\source/ff.c **** int pattern_matching (	/* 0:not matched, 1:matched */
2801:..\..\FatFS-master\source/ff.c **** 	const TCHAR* pat,	/* Matching pattern */
2802:..\..\FatFS-master\source/ff.c **** 	const TCHAR* nam,	/* String to be tested */
2803:..\..\FatFS-master\source/ff.c **** 	int skip,			/* Number of pre-skip chars (number of ?s) */
2804:..\..\FatFS-master\source/ff.c **** 	int inf				/* Infinite search (* specified) */
2805:..\..\FatFS-master\source/ff.c **** )
2806:..\..\FatFS-master\source/ff.c **** {
2807:..\..\FatFS-master\source/ff.c **** 	const TCHAR *pp, *np;
2808:..\..\FatFS-master\source/ff.c **** 	DWORD pc, nc;
2809:..\..\FatFS-master\source/ff.c **** 	int nm, nx;
2810:..\..\FatFS-master\source/ff.c **** 
2811:..\..\FatFS-master\source/ff.c **** 
2812:..\..\FatFS-master\source/ff.c **** 	while (skip--) {				/* Pre-skip name chars */
2813:..\..\FatFS-master\source/ff.c **** 		if (!get_achar(&nam)) return 0;	/* Branch mismatched if less name chars */
2814:..\..\FatFS-master\source/ff.c **** 	}
2815:..\..\FatFS-master\source/ff.c **** 	if (*pat == 0 && inf) return 1;	/* (short circuit) */
2816:..\..\FatFS-master\source/ff.c **** 
2817:..\..\FatFS-master\source/ff.c **** 	do {
2818:..\..\FatFS-master\source/ff.c **** 		pp = pat; np = nam;			/* Top of pattern and name to match */
2819:..\..\FatFS-master\source/ff.c **** 		for (;;) {
2820:..\..\FatFS-master\source/ff.c **** 			if (*pp == '?' || *pp == '*') {	/* Wildcard? */
2821:..\..\FatFS-master\source/ff.c **** 				nm = nx = 0;
2822:..\..\FatFS-master\source/ff.c **** 				do {				/* Analyze the wildcard block */
2823:..\..\FatFS-master\source/ff.c **** 					if (*pp++ == '?') nm++; else nx = 1;
2824:..\..\FatFS-master\source/ff.c **** 				} while (*pp == '?' || *pp == '*');
2825:..\..\FatFS-master\source/ff.c **** 				if (pattern_matching(pp, np, nm, nx)) return 1;	/* Test new branch (recurs upto number of wildc
2826:..\..\FatFS-master\source/ff.c **** 				nc = *np; break;	/* Branch mismatched */
2827:..\..\FatFS-master\source/ff.c **** 			}
2828:..\..\FatFS-master\source/ff.c **** 			pc = get_achar(&pp);	/* Get a pattern char */
2829:..\..\FatFS-master\source/ff.c **** 			nc = get_achar(&np);	/* Get a name char */
2830:..\..\FatFS-master\source/ff.c **** 			if (pc != nc) break;	/* Branch mismatched? */
2831:..\..\FatFS-master\source/ff.c **** 			if (pc == 0) return 1;	/* Branch matched? (matched at end of both strings) */
2832:..\..\FatFS-master\source/ff.c **** 		}
2833:..\..\FatFS-master\source/ff.c **** 		get_achar(&nam);			/* nam++ */
2834:..\..\FatFS-master\source/ff.c **** 	} while (inf && nc);			/* Retry until end of name if infinite search is specified */
2835:..\..\FatFS-master\source/ff.c **** 
2836:..\..\FatFS-master\source/ff.c **** 	return 0;
2837:..\..\FatFS-master\source/ff.c **** }
2838:..\..\FatFS-master\source/ff.c **** 
2839:..\..\FatFS-master\source/ff.c **** #endif /* FF_USE_FIND && FF_FS_MINIMIZE <= 1 */
2840:..\..\FatFS-master\source/ff.c **** 
2841:..\..\FatFS-master\source/ff.c **** 
2842:..\..\FatFS-master\source/ff.c **** 
2843:..\..\FatFS-master\source/ff.c **** /*-----------------------------------------------------------------------*/
2844:..\..\FatFS-master\source/ff.c **** /* Pick a top segment and create the object name in directory form       */
ARM GAS  C:\Users\NUSAIR~1\AppData\Local\Temp\ccFqg92r.s 			page 63


2845:..\..\FatFS-master\source/ff.c **** /*-----------------------------------------------------------------------*/
2846:..\..\FatFS-master\source/ff.c **** 
2847:..\..\FatFS-master\source/ff.c **** static
2848:..\..\FatFS-master\source/ff.c **** FRESULT create_name (	/* FR_OK: successful, FR_INVALID_NAME: could not create */
2849:..\..\FatFS-master\source/ff.c **** 	DIR* dp,			/* Pointer to the directory object */
2850:..\..\FatFS-master\source/ff.c **** 	const TCHAR** path	/* Pointer to pointer to the segment in the path string */
2851:..\..\FatFS-master\source/ff.c **** )
2852:..\..\FatFS-master\source/ff.c **** {
 681              		.loc 1 2852 0
 682              		.cfi_startproc
 683              		@ args = 0, pretend = 0, frame = 8
 684              		@ frame_needed = 0, uses_anonymous_args = 0
 685              	.LVL101:
 686 0000 F0B5     		push	{r4, r5, r6, r7, lr}
 687              		.cfi_def_cfa_offset 20
 688              		.cfi_offset 4, -20
 689              		.cfi_offset 5, -16
 690              		.cfi_offset 6, -12
 691              		.cfi_offset 7, -8
 692              		.cfi_offset 14, -4
 693 0002 5F46     		mov	r7, fp
 694 0004 5646     		mov	r6, r10
 695 0006 4D46     		mov	r5, r9
 696 0008 4446     		mov	r4, r8
 697 000a F0B4     		push	{r4, r5, r6, r7}
 698              		.cfi_def_cfa_offset 36
 699              		.cfi_offset 8, -36
 700              		.cfi_offset 9, -32
 701              		.cfi_offset 10, -28
 702              		.cfi_offset 11, -24
 703 000c 83B0     		sub	sp, sp, #12
 704              		.cfi_def_cfa_offset 48
 705 000e 0190     		str	r0, [sp, #4]
